(lp0
V2436755911
p1
aV1849672393
p2
aV309575298
p3
aV2657797725
p4
aV619316778
p5
aV815900011
p6
aV539265552
p7
aV425646064
p8
aV351042337
p9
aV1922801113
p10
aV809355302
p11
aV164560443
p12
aV2320030462
p13
aV730728180
p14
aV2893185472
p15
aV4174296766
p16
aV385897719
p17
aV2914972240
p18
aV346161795
p19
aV114075705
p20
aV1694289530
p21
aV569258073
p22
aV2221874484
p23
aV2452296161
p24
aV221774529
p25
aV544612697
p26
aV3038693416
p27
aV78429954
p28
aV276947541
p29
aV3608295857
p30
aV302708364
p31
aV2880664491
p32
aV955396537
p33
aV605614784
p34
aV425048762
p35
aV2650582614
p36
aV86802454
p37
aV708429391
p38
aV2332571271
p39
aV428134164
p40
aV275966374
p41
aV420223099
p42
aV1088968645
p43
aV119178709
p44
aV471462139
p45
aV1314132968
p46
aV821482051
p47
aV2527780688
p48
aV3217393599
p49
aV162893574
p50
aV400798557
p51
aV816166388
p52
aV232819109
p53
aV2583026273
p54
aV475091975
p55
aV479757960
p56
aV450546622
p57
aV567382670
p58
aV192166611
p59
aV2921143773
p60
aV388719284
p61
aV465037519
p62
aV191814116
p63
aV417920790
p64
aV1908575102
p65
aV514142800
p66
aV1654801862
p67
aV2328879290
p68
aV194972957
p69
aV603531704
p70
aV479438728
p71
aV2921038485
p72
aV1356649057
p73
aV2764299866
p74
aV2398402626
p75
aV469341577
p76
aV3345732245
p77
aV120178254
p78
aV394870816
p79
aV2899280399
p80
aV623979387
p81
aV2453337396
p82
aV479604138
p83
aV2535083630
p84
aV2469853190
p85
aV156986581
p86
aV1051022264
p87
aV566540382
p88
aV3038103838
p89
aV424540306
p90
aV562440912
p91
aV832668218
p92
aV594689707
p93
aV398044331
p94
aV1259974969
p95
aV3130821988
p96
aV2563121814
p97
aV381419274
p98
aV58030909
p99
aV1352301782
p100
aV14394318
p101
aV203983329
p102
aV68631041
p103
aV318601197
p104
aV434280624
p105
aV3251588698
p106
aV85117452
p107
aV405137914
p108
aV2420586324
p109
aV365935751
p110
aV94529815
p111
aV307015717
p112
aV135267045
p113
aV446903999
p114
aV2402968389
p115
aV1558839894
p116
aV170701710
p117
aV1646281124
p118
aV280242927
p119
aV2377259598
p120
aV4005510735
p121
aV1694275020
p122
aV4098378197
p123
aV14233886
p124
aV331578726
p125
aV2880084795
p126
aV33493010
p127
aV831768450
p128
aV1402978436
p129
aV1226060023
p130
aV278633599
p131
aV2431985092
p132
aV415832180
p133
aV1259113842
p134
aV146738509
p135
aV1092025800
p136
aV2353564274
p137
aV448297006
p138
aV349642471
p139
aV2238011889
p140
aV856169234
p141
aV3193772039
p142
aV406367602
p143
aV445473517
p144
aV302065523
p145
aV993110552
p146
aV1167113408
p147
aV1692174140
p148
aV2937575193
p149
aV4180885613
p150
aV38808849
p151
aV1663651706
p152
aV306980807
p153
aV82089474
p154
aV330602048
p155
aV1386334430
p156
aV239434137
p157
aV2649827251
p158
aV2209323881
p159
aV396021986
p160
aV442193839
p161
aV3171208522
p162
aV497954179
p163
aV2894781395
p164
aV404214104
p165
aV1156695648
p166
aV405817197
p167
aV1030314744
p168
aV56395228
p169
aV3742487597
p170
aV1346600790
p171
aV1276256071
p172
aV2849839605
p173
aV492682792
p174
aV167933227
p175
aV292063590
p176
aV2949402237
p177
aV619929700
p178
aV317975293
p179
aV464659065
p180
aV3654854535
p181
aV2496989087
p182
aV1235376680
p183
aV418572307
p184
aV3407765782
p185
aV444398234
p186
aV415039798
p187
aV1910176993
p188
aV390023023
p189
aV709601106
p190
aV348141611
p191
aV1448563830
p192
aV114451947
p193
aV1100350039
p194
aV1066856816
p195
aV2216026485
p196
aV210102045
p197
aV2935481320
p198
aV2518722404
p199
aV268517375
p200
aV302686805
p201
aV304945509
p202
aV631950372
p203
aV2435156215
p204
aV389711722
p205
aV1292021606
p206
aV1104437479
p207
aV3368927031
p208
aV528694205
p209
aV3008763837
p210
aV118828618
p211
aV901092264
p212
aV517929046
p213
aV58022570
p214
aV2296153657
p215
aV422512736
p216
aV988373714
p217
aV1484490152
p218
aV3240372507
p219
aV96333128
p220
aV89173051
p221
aV763217072
p222
aV2814627791
p223
aV492460290
p224
aV4144210336
p225
aV1352823954
p226
aV284128082
p227
aV3481650688
p228
aV2508321655
p229
aV1408457424
p230
aV446950999
p231
aV2262483365
p232
aV403293960
p233
aV532043012
p234
aV445870620
p235
aV434839840
p236
aV439290200
p237
aV1160829692
p238
aV1139640792
p239
aV62049115
p240
aV1290097460
p241
aV2494196497
p242
aV139683355
p243
aV426094795
p244
aV550361069
p245
aV81871800
p246
aV165453985
p247
aV10100482
p248
aV74964809
p249
aV1104853663
p250
aV4267819000
p251
aV478835343
p252
aV198075884
p253
aV1250020285
p254
aV2644547239
p255
aV410910327
p256
aV153342663
p257
aV444613941
p258
aV132159363
p259
aV1978729974
p260
aV577337366
p261
aV3003268870
p262
aV3334148349
p263
aV58636171
p264
aV330554495
p265
aV498846820
p266
aV124570702
p267
aV2224062058
p268
aV94773688
p269
aV2381776817
p270
aV157361987
p271
aV66635426
p272
aV705489178
p273
aV435232489
p274
aV1331104358
p275
aV560327551
p276
aV1345006094
p277
aV2911434461
p278
aV106789893
p279
aV386191667
p280
aV399553357
p281
aV248579979
p282
aV536154058
p283
aV189265027
p284
aV840555816
p285
aV3431969470
p286
aV706057101
p287
aV526735998
p288
aV481058554
p289
aV61727028
p290
aV1908431192
p291
aV381143161
p292
aV2899686898
p293
aV1076835426
p294
aV374954422
p295
aV866147862
p296
aV1262157433
p297
aV536600780
p298
aV958884716
p299
aV2392141716
p300
aV253531074
p301
aV1489971883
p302
aV2971568187
p303
aV458670095
p304
aV405482706
p305
aV495205889
p306
aV1058535739
p307
aV1077795050
p308
aV357739076
p309
aV213451073
p310
aV3025368046
p311
aV2467797736
p312
aV1130719099
p313
aV1308083862
p314
aV2359426044
p315
aV13514762
p316
aV460959521
p317
aV389473754
p318
aV1057770048
p319
aV1183974055
p320
aV1176687842
p321
aV65396178
p322
aV1143683521
p323
aV1913519623
p324
aV421817125
p325
aV3068713480
p326
aV1119634116
p327
aV1898454535
p328
aV1169611946
p329
aV1034710201
p330
aV381567713
p331
aV1136936700
p332
aV3263800121
p333
aV3331059982
p334
aV289821892
p335
aV806305806
p336
aV1328976937
p337
aV1210063502
p338
aV4342558101
p339
aV3192247277
p340
aV1389988651
p341
aV611680497
p342
aV251090093
p343
aV1535201678
p344
aV1254788209
p345
aV2739123935
p346
aV32456764
p347
aV4251879322
p348
aV3392063956
p349
aV1208976072
p350
aV425285683
p351
aV473046356
p352
aV407285782
p353
aV3298528972
p354
aV550084298
p355
aV916522718
p356
aV3347934334
p357
aV1062995012
p358
aV1207897105
p359
aV606694260
p360
aV200719769
p361
aV593638527
p362
aV50649238
p363
aV2410447644
p364
aV2303414932
p365
aV3323323905
p366
aV895074662
p367
aV1117576526
p368
aV1477008230
p369
aV59720283
p370
aV4019107157
p371
aV56994406
p372
aV3346135546
p373
aV76993549
p374
aV2731197053
p375
aV2181829010
p376
aV515608035
p377
aV2816616164
p378
aV3602290937
p379
aV319095318
p380
aV464781062
p381
aV489501389
p382
aV1062937651
p383
aV4098447160
p384
aV3308327224
p385
aV1415199168
p386
aV1151624496
p387
aV184015853
p388
aV3308422191
p389
aV2245181865
p390
aV2898075617
p391
aV2970225064
p392
aV374508121
p393
aV874284014
p394
aV2902922074
p395
aV204237989
p396
aV1332017394
p397
aV2822310640
p398
aV455291448
p399
aV1623208790
p400
aV294535863
p401
aV1274882076
p402
aV533176044
p403
aV498214941
p404
aV483057175
p405
aV59793989
p406
aV1012135158
p407
aV2195968707
p408
aV1111096692
p409
aV1625746267
p410
aV417351853
p411
aV3175484619
p412
aV106772715
p413
aV430873229
p414
aV1026219187
p415
aV2701029841
p416
aV1361838709
p417
aV2456846400
p418
aV470074795
p419
aV519270696
p420
aV4184406562
p421
aV994761
p422
aV381083479
p423
aV303845265
p424
aV479868696
p425
aV1590686978
p426
aV995129214
p427
aV985118000
p428
aV2875667218
p429
aV405595269
p430
aV550442189
p431
aV2718581956
p432
aV2190915769
p433
aV1960545097
p434
aV263707432
p435
aV48776723
p436
aV1426319126
p437
aV203218931
p438
aV429765708
p439
aV430743919
p440
aV1213793928
p441
aV2401317738
p442
aV221066689
p443
aV1007560902
p444
aV1533536946
p445
aV2265734054
p446
aV2261631554
p447
aV2839645173
p448
aV2804303952
p449
aV1165529066
p450
aV45815847
p451
aV1095548834
p452
aV2748512270
p453
aV2537053148
p454
aV2333203880
p455
aV1221995204
p456
aV2517202242
p457
aV2174564077
p458
aV3613300157
p459
aV2662660706
p460
aV3119633084
p461
aV489374582
p462
aV450708468
p463
aV1930957238
p464
aV2331775274
p465
aV411422247
p466
aV1107205176
p467
aV3344651409
p468
aV3294962666
p469
aV510097129
p470
aV481475713
p471
aV2772829228
p472
aV3088127003
p473
aV174718343
p474
aV425699035
p475
aV1298737056
p476
aV823262870
p477
aV463522424
p478
aV1166991482
p479
aV600280702
p480
aV385017273
p481
aV370223450
p482
aV2262262781
p483
aV2318610186
p484
aV2285418918
p485
aV2792262094
p486
aV523153746
p487
aV702075064
p488
aV1063015987
p489
aV1928593310
p490
aV2615263620
p491
aV103303397
p492
aV407883349
p493
aV42653494
p494
aV1146147427
p495
aV2322998168
p496
aV1650023988
p497
aV4327026615
p498
aV494932976
p499
aV2243105962
p500
aV3138188655
p501
aV221384463
p502
aV204765687
p503
aV924750434
p504
aV3559747043
p505
aV3119071163
p506
aV637095950
p507
aV2948429116
p508
aV1115402810
p509
aV1260045176
p510
aV3342665663
p511
aV3374467005
p512
aV368241794
p513
aV458169759
p514
aV433625808
p515
aV212661946
p516
aV590251970
p517
aV3978247071
p518
aV776431956
p519
aV2929684851
p520
aV497925790
p521
aV577023890
p522
aV978557845
p523
aV2950133739
p524
aV3827686029
p525
aV1320488653
p526
aV2460447886
p527
aV628514304
p528
aV3241689735
p529
aV1729205360
p530
aV2962002417
p531
aV2171028731
p532
aV82901102
p533
aV3063738106
p534
aV812753496
p535
aV2451737695
p536
aV2257121711
p537
aV2987047432
p538
aV950500700
p539
aV255666056
p540
aV1204728828
p541
aV4405785676
p542
aV522173645
p543
aV209891777
p544
aV483384295
p545
aV306137883
p546
aV351555225
p547
aV409382884
p548
aV2940999287
p549
aV716422928
p550
aV105277763
p551
aV231739381
p552
aV2322947462
p553
aV2731153806
p554
aV498908089
p555
aV263037408
p556
aV3074991604
p557
aV3374317114
p558
aV109919690
p559
aV458560584
p560
aV295067525
p561
aV2188503282
p562
aV32451723
p563
aV4194540814
p564
aV133417043
p565
aV86342681
p566
aV2841781307
p567
aV1871000750
p568
aV2479974906
p569
aV2572093630
p570
aV394014388
p571
aV735075972
p572
aV425378217
p573
aV417954833
p574
aV2362792135
p575
aV2485632127
p576
aV707554040
p577
aV57358236
p578
aV3404173085
p579
aV453851050
p580
aV330232761
p581
aV1463063808
p582
aV360830746
p583
aV44673590
p584
aV318882223
p585
aV72621572
p586
aV1227754856
p587
aV1655717905
p588
aV1476948512
p589
aV110419362
p590
aV1725431600
p591
aV510439689
p592
aV2463100707
p593
aV2969457687
p594
aV1075084718
p595
aV413814717
p596
aV1042807543
p597
aV2893239249
p598
aV399307522
p599
aV211254120
p600
aV860222119
p601
aV569054102
p602
aV2730381324
p603
aV2238203192
p604
aV3068039679
p605
aV346665484
p606
aV62040181
p607
aV3233625838
p608
aV1647323389
p609
aV3053723635
p610
aV232231711
p611
aV2401743697
p612
aV2373795058
p613
aV125786855
p614
aV2282351922
p615
aV2390989461
p616
aV52314828
p617
aV1964621196
p618
aV58614589
p619
aV60654840
p620
aV213369093
p621
aV362432939
p622
aV445475285
p623
aV2628061542
p624
aV365375902
p625
aV2979592169
p626
aV432688797
p627
aV25662212
p628
aV572936424
p629
aV1694492030
p630
aV1418976222
p631
aV453970739
p632
aV481225656
p633
aV254625981
p634
aV1871088685
p635
aV1047330996
p636
aV735316014
p637
aV256146029
p638
aV518540282
p639
aV391954792
p640
aV426181894
p641
aV163269007
p642
aV358808488
p643
aV1391958840
p644
aV99702635
p645
aV127162699
p646
aV2356185717
p647
aV4363845076
p648
aV273370138
p649
aV216376440
p650
aV874348722
p651
aV800220072
p652
aV1937687078
p653
aV3010643289
p654
aV2959917485
p655
aV26586798
p656
aV139455894
p657
aV1605951806
p658
aV1190590579
p659
aV428163230
p660
aV1277594342
p661
aV432482574
p662
aV803156832
p663
aV1614834978
p664
aV22043779
p665
aV970440781
p666
aV2649164186
p667
aV1037156942
p668
aV337076095
p669
aV1159915009
p670
aV865252152
p671
aV1167100496
p672
aV2355147860
p673
aV144187227
p674
aV311481042
p675
aV1245607699
p676
aV149231097
p677
aV722967499
p678
aV4440956415
p679
aV126049704
p680
aV391379718
p681
aV1205887928
p682
aV326962678
p683
aV388145933
p684
aV2997648875
p685
aV54860021
p686
aV376733491
p687
aV3907387714
p688
aV1453468669
p689
aV1915050013
p690
aV1037692622
p691
aV1312257025
p692
aV573081544
p693
aV1077925266
p694
aV2864941194
p695
aV184425554
p696
aV170769737
p697
aV561664039
p698
aV585968039
p699
aV379881527
p700
aV2445645806
p701
aV33888389
p702
aV606823551
p703
aV27992407
p704
aV902101675
p705
aV180317088
p706
aV463347621
p707
aV2909504255
p708
aV2178600592
p709
aV895532706
p710
aV448826586
p711
aV3346688001
p712
aV1342072490
p713
aV1921293104
p714
aV3015642023
p715
aV3790217597
p716
aV338646883
p717
aV20846084
p718
aV1120077589
p719
aV2236730215
p720
aV2231463645
p721
aV1125112531
p722
aV1085455423
p723
aV514161086
p724
aV296475664
p725
aV1275906564
p726
aV3547547176
p727
aV962439266
p728
aV137388733
p729
aV96323015
p730
aV490733693
p731
aV983102930
p732
aV2874163817
p733
aV462099167
p734
aV2600519411
p735
aV987308448
p736
aV447820297
p737
aV59540907
p738
aV561041999
p739
aV345584484
p740
aV1598253523
p741
aV528830344
p742
aV2203429105
p743
aV3239175100
p744
aV381037300
p745
aV582121416
p746
aV1037152033
p747
aV1102216892
p748
aV3425847597
p749
aV1478297786
p750
aV4387299863
p751
aV483304367
p752
aV2907520191
p753
aV3926397568
p754
aV2804804104
p755
aV519337853
p756
aV2176157009
p757
aV212724190
p758
aV3311717032
p759
aV274014643
p760
aV158470519
p761
aV3377613693
p762
aV424769541
p763
aV84416696
p764
aV1660473932
p765
aV763885171
p766
aV594777484
p767
aV2475329228
p768
aV499227001
p769
aV94528769
p770
aV1027369418
p771
aV2707696839
p772
aV133417708
p773
aV413948902
p774
aV551970004
p775
aV22053399
p776
aV1359001694
p777
aV2158614921
p778
aV906733759
p779
aV88731319
p780
aV146215776
p781
aV2943736768
p782
aV74544145
p783
aV1370605363
p784
aV2490640097
p785
aV485634584
p786
aV1070486665
p787
aV1468163754
p788
aV405948588
p789
aV117701249
p790
aV1088675498
p791
aV583877210
p792
aV116750970
p793
aV2854719148
p794
aV319782293
p795
aV200235787
p796
aV81563532
p797
aV3986627547
p798
aV303455638
p799
aV242954953
p800
aV3654048027
p801
aV1728213950
p802
aV69558383
p803
aV1469191586
p804
aV504631659
p805
aV1252946868
p806
aV596550472
p807
aV70399918
p808
aV3080186967
p809
aV1734343080
p810
aV3173819499
p811
aV252332089
p812
aV92293613
p813
aV74747602
p814
aV3375448431
p815
aV2395971816
p816
aV296148731
p817
aV962311958
p818
aV3207456845
p819
aV257499288
p820
aV454191208
p821
aV116517401
p822
aV105602878
p823
aV139340211
p824
aV2233440089
p825
aV230254846
p826
aV242071863
p827
aV265522225
p828
aV224210187
p829
aV203422688
p830
aV139764514
p831
aV143867179
p832
aV228051072
p833
aV851112127
p834
aV2310684649
p835
aV1116674660
p836
aV1472956555
p837
aV231726084
p838
aV2534380132
p839
aV2328604034
p840
aV1269634826
p841
aV3708124997
p842
aV3064476580
p843
aV470050429
p844
aV51703219
p845
aV1372686620
p846
aV4205301226
p847
aV268850788
p848
aV410868274
p849
aV2257921394
p850
aV722794470
p851
aV940144266
p852
aV405418046
p853
aV849274159
p854
aV131126639
p855
aV424980952
p856
aV1334169152
p857
aV408498075
p858
aV1234932619
p859
aV597453726
p860
aV2891197923
p861
aV420624994
p862
aV22347667
p863
aV452117960
p864
aV1103812855
p865
aV1409564006
p866
aV555041022
p867
aV449318035
p868
aV493818614
p869
aV3579226641
p870
aV2876346088
p871
aV17876465
p872
aV461895249
p873
aV452777469
p874
aV448007190
p875
aV412482700
p876
aV577496407
p877
aV2972990703
p878
aV51902264
p879
aV1291622634
p880
aV4181180835
p881
aV1020346963
p882
aV2586934926
p883
aV3469626245
p884
aV2243490855
p885
aV1504710145
p886
aV96127962
p887
aV4415561026
p888
aV1155116132
p889
aV48182327
p890
aV2984349707
p891
aV278477567
p892
aV289020114
p893
aV1246261794
p894
aV2376999356
p895
aV188865441
p896
aV1200815466
p897
aV41560846
p898
aV253037330
p899
aV466373932
p900
aV2963665480
p901
aV78958901
p902
aV56356444
p903
aV270518699
p904
aV3028211818
p905
aV2506846998
p906
aV339760672
p907
aV3148025625
p908
aV3191192553
p909
aV906349453
p910
aV2436608759
p911
aV96364636
p912
aV1467931128
p913
aV519529163
p914
aV444837039
p915
aV52352441
p916
aV224993460
p917
aV405777470
p918
aV433446505
p919
aV2370101162
p920
aV3020153968
p921
aV1039654752
p922
aV957846853
p923
aV3556843762
p924
aV619856478
p925
aV497320380
p926
aV4386302932
p927
aV394073083
p928
aV601316915
p929
aV394165785
p930
aV2828477103
p931
aV243120841
p932
aV1176925574
p933
aV268899621
p934
aV3248554877
p935
aV214047668
p936
aV2427311741
p937
aV503303414
p938
aV2459003130
p939
aV4042195985
p940
aV381221179
p941
aV4458196774
p942
aV431789327
p943
aV101188410
p944
aV485710079
p945
aV238961289
p946
aV15317484
p947
aV3320129693
p948
aV2872071959
p949
aV822304266
p950
aV2645093363
p951
aV989695621
p952
aV1441091340
p953
aV4464477437
p954
aV2527331874
p955
aV199172228
p956
aV548620561
p957
aV1166637379
p958
aV124576769
p959
aV214902703
p960
aV1231844054
p961
aV226628880
p962
aV475578901
p963
aV436220166
p964
aV514664950
p965
aV1018231903
p966
aV276544322
p967
aV2882553485
p968
aV2350091316
p969
aV1372461787
p970
aV2769736419
p971
aV939421976
p972
aV1160579486
p973
aV3077606153
p974
aV2665893564
p975
aV564360716
p976
aV233489435
p977
aV352629296
p978
aV1029462924
p979
aV375218459
p980
aV3309458867
p981
aV3157568416
p982
aV247726328
p983
aV97276523
p984
aV411709948
p985
aV4434584361
p986
aV197056224
p987
aV420538698
p988
aV1095536713
p989
aV22122962
p990
aV405731693
p991
aV2327645726
p992
aV399609372
p993
aV2912621278
p994
aV3052871195
p995
aV390869316
p996
aV819732518
p997
aV2331189472
p998
aV3111516875
p999
aV465677671
p1000
aV128200649
p1001
aV2648038336
p1002
aV305595876
p1003
aV179880224
p1004
aV343239720
p1005
aV2894448369
p1006
aV3393854944
p1007
aV3937311809
p1008
aV133600395
p1009
aV1318788918
p1010
aV1958629946
p1011
aV2823528449
p1012
aV2396546196
p1013
aV477450445
p1014
aV1412917706
p1015
aV354322711
p1016
aV3404776456
p1017
aV1218936162
p1018
aV261644814
p1019
aV318610541
p1020
aV1376892024
p1021
aV2786847357
p1022
aV4219940386
p1023
aV2366082457
p1024
aV995341382
p1025
aV2369514974
p1026
aV2987972555
p1027
aV264268456
p1028
aV589411940
p1029
aV292204573
p1030
aV435190645
p1031
aV1121935962
p1032
aV160108824
p1033
aV260230310
p1034
aV222437367
p1035
aV490480001
p1036
aV381953555
p1037
aV434783947
p1038
aV967843051
p1039
aV3164390831
p1040
aV4008548075
p1041
aV1427233322
p1042
aV299780153
p1043
aV2881759462
p1044
aV2785739646
p1045
aV2190335467
p1046
aV2288108002
p1047
aV452377652
p1048
aV94072544
p1049
aV557292057
p1050
aV2398440056
p1051
aV2321180143
p1052
aV451709362
p1053
aV1482927091
p1054
aV2811252663
p1055
aV311392513
p1056
aV1257130652
p1057
aV4330721535
p1058
aV31880558
p1059
aV55375888
p1060
aV304038559
p1061
aV1848967950
p1062
aV2776095070
p1063
aV400076822
p1064
aV1039416606
p1065
aV29182906
p1066
aV4221091641
p1067
aV500578766
p1068
aV17925081
p1069
aV313813750
p1070
aV2824958793
p1071
aV2714596672
p1072
aV436107386
p1073
aV2310261690
p1074
aV2879750159
p1075
aV137954777
p1076
aV2845190541
p1077
aV551156956
p1078
aV3271688723
p1079
aV2318216051
p1080
aV276026459
p1081
aV1059984817
p1082
aV1178518129
p1083
aV472237186
p1084
aV174686835
p1085
aV1368793633
p1086
aV497816379
p1087
aV407093504
p1088
aV444589610
p1089
aV31394223
p1090
aV120534956
p1091
aV1041823142
p1092
aV190742902
p1093
aV428588499
p1094
aV400328739
p1095
aV127435541
p1096
aV147589002
p1097
aV759592688
p1098
aV2460104746
p1099
aV1273225644
p1100
aV1499640739
p1101
aV91866164
p1102
aV22651519
p1103
aV1035183542
p1104
aV2768667015
p1105
aV505759661
p1106
aV1248307267
p1107
aV401318303
p1108
aV317671787
p1109
aV4462409973
p1110
aV448732675
p1111
aV72579640
p1112
aV1384779248
p1113
aV839843418
p1114
aV34916967
p1115
aV632400257
p1116
aV553401472
p1117
aV545381246
p1118
aV847536198
p1119
aV3025023869
p1120
aV122520593
p1121
aV953255348
p1122
aV239361693
p1123
aV272354189
p1124
aV2229867720
p1125
aV1084486004
p1126
aV389076701
p1127
aV2455009450
p1128
aV1060195976
p1129
aV2846827296
p1130
aV3725852175
p1131
aV423435597
p1132
aV384989541
p1133
aV477068575
p1134
aV81843709
p1135
aV343442484
p1136
aV1151076073
p1137
aV3089110638
p1138
aV1369005530
p1139
aV259448106
p1140
aV1550486461
p1141
aV620788586
p1142
aV963903116
p1143
aV431587174
p1144
aV436640636
p1145
aV4310085143
p1146
aV3426670696
p1147
aV15056925
p1148
aV431619975
p1149
aV2504129001
p1150
aV1552953278
p1151
aV440263536
p1152
aV33864051
p1153
aV398946027
p1154
aV365065358
p1155
aV17043150
p1156
aV418236949
p1157
aV436580548
p1158
aV3312849417
p1159
aV4187537297
p1160
aV2494181366
p1161
aV1170199861
p1162
aV1225991917
p1163
aV2322836408
p1164
aV79249140
p1165
aV379241145
p1166
aV1062799087
p1167
aV366643800
p1168
aV2348648967
p1169
aV1160507178
p1170
aV2976884806
p1171
aV445453786
p1172
aV19592755
p1173
aV1036560565
p1174
aV527575519
p1175
aV3172277103
p1176
aV464829514
p1177
aV827588232
p1178
aV476861259
p1179
aV4233301577
p1180
aV928474153
p1181
aV201654791
p1182
aV162785606
p1183
aV551845315
p1184
aV22605126
p1185
aV3365536175
p1186
aV113015281
p1187
aV804753644
p1188
aV1869017138
p1189
aV446293700
p1190
aV2507449094
p1191
aV1959260970
p1192
aV511550618
p1193
aV1315379233
p1194
aV2730593590
p1195
aV145802194
p1196
aV2361561634
p1197
aV7254152
p1198
aV446090752
p1199
aV1681073648
p1200
aV3297298189
p1201
aV515380651
p1202
aV390923770
p1203
aV288901317
p1204
aV292236083
p1205
aV2387862073
p1206
aV12318782
p1207
aV94092819
p1208
aV1381489063
p1209
aV1193780617
p1210
aV3382770388
p1211
aV450944253
p1212
aV416439103
p1213
aV4393347915
p1214
aV2546064788
p1215
aV487565991
p1216
aV558534010
p1217
aV112785754
p1218
aV2594689587
p1219
aV399560982
p1220
aV96337794
p1221
aV477543705
p1222
aV572125780
p1223
aV1071445298
p1224
aV1221719288
p1225
aV55568482
p1226
aV2951614234
p1227
aV1444286834
p1228
aV360838626
p1229
aV2428494575
p1230
aV3163296766
p1231
aV4202886551
p1232
aV380414029
p1233
aV1065254220
p1234
aV50233016
p1235
aV1222888213
p1236
aV432403747
p1237
aV985284978
p1238
aV2447874730
p1239
aV479810905
p1240
aV3131601454
p1241
aV2367834092
p1242
aV1324640485
p1243
aV718651225
p1244
aV217363786
p1245
aV133038458
p1246
aV2499224871
p1247
aV585941279
p1248
aV590782282
p1249
aV2304933756
p1250
aV2199752110
p1251
aV527938655
p1252
aV1083783978
p1253
aV17808804
p1254
aV2603216881
p1255
aV2446592232
p1256
aV4218005499
p1257
aV475175542
p1258
aV29236274
p1259
aV484219561
p1260
aV3420168509
p1261
aV421822984
p1262
aV4061316509
p1263
aV251388963
p1264
aV2158396617
p1265
aV3176625754
p1266
aV937279710
p1267
aV255686764
p1268
aV2748410466
p1269
aV3172445115
p1270
aV59165953
p1271
aV327606075
p1272
aV2212866474
p1273
aV9055772
p1274
aV493524331
p1275
aV569882868
p1276
aV891219162
p1277
aV2644368489
p1278
aV56459334
p1279
aV752010888
p1280
aV28398786
p1281
aV1283446118
p1282
aV3297443457
p1283
aV223076186
p1284
aV2450692721
p1285
aV2881376289
p1286
aV427306405
p1287
aV2829606520
p1288
aV258400230
p1289
aV427804855
p1290
aV596846893
p1291
aV875341658
p1292
aV2162860224
p1293
aV1090121246
p1294
aV1379520397
p1295
aV3064343165
p1296
aV333043573
p1297
aV1288987213
p1298
aV3004116784
p1299
aV131171511
p1300
aV2377659242
p1301
aV1573078681
p1302
aV3157206088
p1303
aV425479495
p1304
aV209084129
p1305
aV2152572284
p1306
aV1109639072
p1307
aV596584630
p1308
aV169510626
p1309
aV3068478347
p1310
aV2240888233
p1311
aV245709935
p1312
aV493239048
p1313
aV1566023431
p1314
aV222442719
p1315
aV1044417800
p1316
aV142034488
p1317
aV841953475
p1318
aV343382353
p1319
aV458368651
p1320
aV1030992019
p1321
aV550289001
p1322
aV268994593
p1323
aV4469374774
p1324
aV3146865975
p1325
aV352390067
p1326
aV232261931
p1327
aV273360926
p1328
aV1162106605
p1329
aV4097700742
p1330
aV1048267423
p1331
aV494909390
p1332
aV382595968
p1333
aV2789873312
p1334
aV57402323
p1335
aV481359440
p1336
aV543546376
p1337
aV3110219361
p1338
aV294939168
p1339
aV3354588197
p1340
aV116851729
p1341
aV488895138
p1342
aV2858672993
p1343
aV2267288613
p1344
aV1040546899
p1345
aV504230475
p1346
aV328511893
p1347
aV1135800156
p1348
aV3373836483
p1349
aV2182923351
p1350
aV3461082202
p1351
aV450555112
p1352
aV51465605
p1353
aV1954771934
p1354
aV4295945243
p1355
aV2235047637
p1356
aV2835100096
p1357
aV2981572462
p1358
aV4234501595
p1359
aV585893454
p1360
aV1153466732
p1361
aV14278162
p1362
aV13728662
p1363
aV2392596204
p1364
aV2415899762
p1365
aV995021599
p1366
aV2284054562
p1367
aV488627317
p1368
aV722254526
p1369
aV1282934066
p1370
aV110727457
p1371
aV3863194342
p1372
aV3292938357
p1373
aV1140559322
p1374
aV332921113
p1375
aV29187013
p1376
aV1048599337
p1377
aV3141185441
p1378
aV415437027
p1379
aV2981576872
p1380
aV1867212703
p1381
aV867059701
p1382
aV185192570
p1383
aV486904199
p1384
aV454365633
p1385
aV2870404853
p1386
aV865431571
p1387
aV1330159022
p1388
aV1096235264
p1389
aV405094298
p1390
aV310195119
p1391
aV450896043
p1392
aV2774559063
p1393
aV2515144546
p1394
aV2849468825
p1395
aV430033394
p1396
aV4018671617
p1397
aV51709207
p1398
aV2459996144
p1399
aV372013845
p1400
aV237012591
p1401
aV345918295
p1402
aV2797736266
p1403
aV4038670067
p1404
aV183266411
p1405
aV2943704976
p1406
aV3225172937
p1407
aV514330234
p1408
aV2721276416
p1409
aV253501887
p1410
aV414855494
p1411
aV505151483
p1412
aV422829930
p1413
aV2940585718
p1414
aV231134468
p1415
aV4318563737
p1416
aV373287402
p1417
aV403444000
p1418
aV784280066
p1419
aV2945729813
p1420
aV19441340
p1421
aV481906410
p1422
aV2334501166
p1423
aV125282795
p1424
aV2548704979
p1425
aV3291493733
p1426
aV4394733299
p1427
aV1130420497
p1428
aV80200885
p1429
aV841520510
p1430
aV177086902
p1431
aV299020216
p1432
aV247732000
p1433
aV841140996
p1434
aV448998373
p1435
aV2342619006
p1436
aV271562651
p1437
aV2617515231
p1438
aV318939574
p1439
aV2334295285
p1440
aV3874197207
p1441
aV2604042187
p1442
aV555481994
p1443
aV1091853968
p1444
aV28740676
p1445
aV1694585623
p1446
aV2348275067
p1447
aV14900051
p1448
aV2444779293
p1449
aV202306003
p1450
aV1067982564
p1451
aV847193449
p1452
aV61081513
p1453
aV146522828
p1454
aV89161108
p1455
aV43993712
p1456
aV1334546508
p1457
aV2928510341
p1458
aV789750300
p1459
aV4150261642
p1460
aV2214163247
p1461
aV1926446076
p1462
aV453920035
p1463
aV718008585
p1464
aV2943733317
p1465
aV492360425
p1466
aV127894175
p1467
aV1879889592
p1468
aV2710986051
p1469
aV1491194724
p1470
aV1063829736
p1471
aV1107256004
p1472
aV1058676752
p1473
aV16088660
p1474
aV413217587
p1475
aV400952807
p1476
aV574841028
p1477
aV96375613
p1478
aV1145049782
p1479
aV1053075751
p1480
aV832669237
p1481
aV510280882
p1482
aV2725246077
p1483
aV170467159
p1484
aV467640851
p1485
aV66315339
p1486
aV414682102
p1487
aV884424342
p1488
aV2163227033
p1489
aV2356265088
p1490
aV409444860
p1491
aV2234774307
p1492
aV306064701
p1493
aV746802361
p1494
aV595680879
p1495
aV141326282
p1496
aV2425301430
p1497
aV418361902
p1498
aV540684856
p1499
aV241289430
p1500
aV1007014172
p1501
aV471232887
p1502
aV412428195
p1503
aV434200485
p1504
aV722394991
p1505
aV1174274426
p1506
aV1591318248
p1507
aV2785566322
p1508
aV829507466
p1509
aV1845570421
p1510
aV78850272
p1511
aV66488419
p1512
aV2262915180
p1513
aV304526335
p1514
aV488749288
p1515
aV135640839
p1516
aV537538390
p1517
aV49458966
p1518
aV493981441
p1519
aV479560424
p1520
aV1216645705
p1521
aV3402662589
p1522
aV2321398286
p1523
aV968433782
p1524
aV2427964266
p1525
aV58182541
p1526
aV154508155
p1527
aV842661266
p1528
aV467573735
p1529
aV602216944
p1530
aV547771010
p1531
aV822025249
p1532
aV407685967
p1533
aV548335017
p1534
aV325165914
p1535
aV180818664
p1536
aV1044887318
p1537
aV38398195
p1538
aV576946442
p1539
aV110654085
p1540
aV370639956
p1541
aV1352044597
p1542
aV1063345483
p1543
aV618929613
p1544
aV455266241
p1545
aV2461134206
p1546
aV550936597
p1547
aV954003565
p1548
aV3826164495
p1549
aV380836459
p1550
aV1066272294
p1551
aV4019643525
p1552
aV155978360
p1553
aV3122280521
p1554
aV3842545463
p1555
aV415135980
p1556
aV1052695676
p1557
aV1048863997
p1558
aV2959157207
p1559
aV2885393529
p1560
aV436067458
p1561
aV453931362
p1562
aV3039455387
p1563
aV1338839544
p1564
aV2166381300
p1565
aV1011165642
p1566
aV434787804
p1567
aV912474818
p1568
aV541670926
p1569
aV2268014213
p1570
aV761231588
p1571
aV74731429
p1572
aV750995719
p1573
aV3160615324
p1574
aV2221430782
p1575
aV365064255
p1576
aV494186757
p1577
aV310766395
p1578
aV208642171
p1579
aV854521818
p1580
aV455266102
p1581
aV245328223
p1582
aV1311687600
p1583
aV3906213625
p1584
aV17053149
p1585
aV487999342
p1586
aV473933150
p1587
aV3355494922
p1588
aV102058533
p1589
aV2706476465
p1590
aV427690444
p1591
aV849590082
p1592
aV1274289852
p1593
aV1480144549
p1594
aV582236593
p1595
aV2224955174
p1596
aV299243051
p1597
aV3938357019
p1598
aV951595069
p1599
aV22042468
p1600
aV3750084076
p1601
aV547890554
p1602
aV1269539851
p1603
aV3015168833
p1604
aV544273174
p1605
aV2187201314
p1606
aV427673107
p1607
aV2386576434
p1608
aV452351631
p1609
aV1192340720
p1610
aV430319829
p1611
aV249845191
p1612
aV1139784679
p1613
aV2898759641
p1614
aV1013309167
p1615
aV494488032
p1616
aV3094203685
p1617
aV320835286
p1618
aV278093574
p1619
aV2858584827
p1620
aV611955138
p1621
aV192718732
p1622
aV2452701214
p1623
aV1065280266
p1624
aV497091752
p1625
aV2867986534
p1626
aV471763431
p1627
aV253032506
p1628
aV548292058
p1629
aV4319479529
p1630
aV178380589
p1631
aV1231899811
p1632
aV1492549380
p1633
aV1139838132
p1634
aV816959106
p1635
aV478528950
p1636
aV902707484
p1637
aV590833841
p1638
aV451473769
p1639
aV1147395914
p1640
aV3329349712
p1641
aV81779451
p1642
aV27333257
p1643
aV4260932356
p1644
aV2148135826
p1645
aV164780237
p1646
aV59450233
p1647
aV2785076877
p1648
aV2170644741
p1649
aV884459875
p1650
aV912833226
p1651
aV1946899837
p1652
aV159985010
p1653
aV401687825
p1654
aV2205817935
p1655
aV266249568
p1656
aV2267355079
p1657
aV1308112182
p1658
aV329562630
p1659
aV85068775
p1660
aV2350818704
p1661
aV1615176902
p1662
aV1101446990
p1663
aV3288432659
p1664
aV2252126006
p1665
aV447863789
p1666
aV133447001
p1667
aV417897223
p1668
aV1556491195
p1669
aV506170223
p1670
aV3331175867
p1671
aV910314312
p1672
aV545474882
p1673
aV307278565
p1674
aV1707540990
p1675
aV428458020
p1676
aV1010820098
p1677
aV279594662
p1678
aV1246852200
p1679
aV437375527
p1680
aV462851638
p1681
aV4070811365
p1682
aV1971012968
p1683
aV1632702368
p1684
aV245490015
p1685
aV2236761742
p1686
aV254032141
p1687
aV1239893269
p1688
aV483995830
p1689
aV1346996612
p1690
aV34932457
p1691
aV1008382820
p1692
aV2236900491
p1693
aV1893025346
p1694
aV1696961976
p1695
aV164224661
p1696
aV1676410177
p1697
aV1035055328
p1698
aV1219792052
p1699
aV221026373
p1700
aV494088177
p1701
aV2540966552
p1702
aV501635930
p1703
aV224226820
p1704
aV2339272123
p1705
aV2673479080
p1706
aV939257460
p1707
aV3988413581
p1708
aV1623610219
p1709
aV2879424245
p1710
aV425863621
p1711
aV3092613310
p1712
aV3408591659
p1713
aV542979444
p1714
aV24549374
p1715
aV766472826
p1716
aV103823672
p1717
aV914573593
p1718
aV533019074
p1719
aV113446660
p1720
aV517721087
p1721
aV1117655287
p1722
aV2165533154
p1723
aV38830450
p1724
aV269425726
p1725
aV2939040203
p1726
aV588338882
p1727
aV276938116
p1728
aV2983269155
p1729
aV203827028
p1730
aV2678411783
p1731
aV2180073286
p1732
aV2935693049
p1733
aV2512944834
p1734
aV2330457144
p1735
aV387345110
p1736
aV4462561953
p1737
aV495749499
p1738
aV541824556
p1739
aV1409736301
p1740
aV199345736
p1741
aV953542285
p1742
aV16256192
p1743
aV2443925120
p1744
aV4296350716
p1745
aV326226399
p1746
aV455642730
p1747
aV595356862
p1748
aV620862481
p1749
aV313514631
p1750
aV3536077337
p1751
aV289886083
p1752
aV4141927199
p1753
aV608138818
p1754
aV278415013
p1755
aV886499509
p1756
aV359903497
p1757
aV398032197
p1758
aV225168723
p1759
aV370182507
p1760
aV401650330
p1761
aV1070696468
p1762
aV419122011
p1763
aV141529750
p1764
aV927969740
p1765
aV416372395
p1766
aV354808947
p1767
aV1038394262
p1768
aV2569113408
p1769
aV437513412
p1770
aV2408803254
p1771
aV2799582865
p1772
aV1621114436
p1773
aV345488835
p1774
aV424154220
p1775
aV2991787774
p1776
aV232908749
p1777
aV427418997
p1778
aV532547734
p1779
aV1855414472
p1780
aV1180597874
p1781
aV103322439
p1782
aV115523877
p1783
aV1513362168
p1784
aV1683545012
p1785
aV365676335
p1786
aV443508306
p1787
aV4440955817
p1788
aV2977934441
p1789
aV2737006611
p1790
aV2937645454
p1791
aV1060476632
p1792
aV421236822
p1793
aV270767206
p1794
aV957505772
p1795
aV275754256
p1796
aV1167282289
p1797
aV1915578642
p1798
aV305587406
p1799
aV1683337418
p1800
aV2899612829
p1801
aV1938496747
p1802
aV423471368
p1803
aV467389922
p1804
aV1220916524
p1805
aV152567081
p1806
aV3280052890
p1807
aV227302541
p1808
aV431549607
p1809
aV380321514
p1810
aV2153979814
p1811
aV433664513
p1812
aV3881628269
p1813
aV529256320
p1814
aV216308253
p1815
aV1151876744
p1816
aV3236080281
p1817
aV293529822
p1818
aV1354935949
p1819
aV596821309
p1820
aV358137764
p1821
aV1148239141
p1822
aV1041969109
p1823
aV53139843
p1824
aV590080393
p1825
aV6443392
p1826
aV934731733
p1827
aV476053480
p1828
aV1052689938
p1829
aV444656205
p1830
aV3433118241
p1831
aV75576699
p1832
aV3395020235
p1833
aV56161146
p1834
aV3298252493
p1835
aV704598502
p1836
aV8357342
p1837
aV36028687
p1838
aV2372863064
p1839
aV1619917472
p1840
aV2216421929
p1841
aV3190082914
p1842
aV734318324
p1843
aV636107588
p1844
aV562064619
p1845
aV1278202914
p1846
aV2755406832
p1847
aV1359299438
p1848
aV565467907
p1849
aV3234877243
p1850
aV987513386
p1851
aV1125109992
p1852
aV2155070496
p1853
aV4481567715
p1854
aV636357574
p1855
aV3124680147
p1856
aV557881473
p1857
aV193784425
p1858
aV47925198
p1859
aV138772797
p1860
aV1010779513
p1861
aV467359617
p1862
aV223881169
p1863
aV1154847312
p1864
aV54918431
p1865
aV366228620
p1866
aV1291735926
p1867
aV513439579
p1868
aV1014815928
p1869
aV422202520
p1870
aV300390026
p1871
aV15750149
p1872
aV161450764
p1873
aV1424689315
p1874
aV2535764117
p1875
aV983049476
p1876
aV417917991
p1877
aV433273476
p1878
aV214070595
p1879
aV110218135
p1880
aV256512993
p1881
aV3957200969
p1882
aV413293930
p1883
aV255752744
p1884
aV2481385154
p1885
aV1386793261
p1886
aV186128109
p1887
aV874311997
p1888
aV2376428968
p1889
aV341423788
p1890
aV157917956
p1891
aV1035460693
p1892
aV444051971
p1893
aV1175727986
p1894
aV1386861416
p1895
aV455179179
p1896
aV1346055018
p1897
aV78567974
p1898
aV2401928280
p1899
aV418208469
p1900
aV2386237696
p1901
aV1209210108
p1902
aV895776176
p1903
aV1063899488
p1904
aV1239978176
p1905
aV2998534481
p1906
aV463938365
p1907
aV1037819534
p1908
aV443708574
p1909
aV298502247
p1910
aV1274855814
p1911
aV235089754
p1912
aV92978896
p1913
aV426975826
p1914
aV2220174290
p1915
aV3254009057
p1916
aV316741574
p1917
aV86596203
p1918
aV1128223242
p1919
aV537477082
p1920
aV3409905507
p1921
aV3164673604
p1922
aV1070503616
p1923
aV3124079014
p1924
aV137126479
p1925
aV305650360
p1926
aV1039675664
p1927
aV598245434
p1928
aV586498147
p1929
aV377660882
p1930
aV492031787
p1931
aV1726027441
p1932
aV1326880621
p1933
aV521700191
p1934
aV3018290121
p1935
aV1189814130
p1936
aV2956497346
p1937
aV406170456
p1938
aV448677905
p1939
aV3678213495
p1940
aV2316907202
p1941
aV59073202
p1942
aV1136433846
p1943
aV2473817899
p1944
aV716039706
p1945
aV364306757
p1946
aV325417763
p1947
aV421438318
p1948
aV2915603344
p1949
aV2414907218
p1950
aV340963646
p1951
aV1961057142
p1952
aV1639689480
p1953
aV85657467
p1954
aV2881244285
p1955
aV410970285
p1956
aV257028538
p1957
aV118978778
p1958
aV591459578
p1959
aV38255795
p1960
aV432566115
p1961
aV3292501863
p1962
aV2347290581
p1963
aV2411693077
p1964
aV1035238824
p1965
aV490933406
p1966
aV4455445107
p1967
aV106204756
p1968
aV2501645685
p1969
aV997702009
p1970
aV603846979
p1971
aV2712083566
p1972
aV4188390915
p1973
aV232972471
p1974
aV534519434
p1975
aV1407106380
p1976
aV562716760
p1977
aV159463958
p1978
aV519495055
p1979
aV2427478331
p1980
aV1139902766
p1981
aV229505928
p1982
aV1367973715
p1983
aV3188172256
p1984
aV557366826
p1985
aV96161954
p1986
aV2744419310
p1987
aV420194671
p1988
aV432646643
p1989
aV2328829536
p1990
aV1210029247
p1991
aV3295250063
p1992
aV1013753576
p1993
aV488010283
p1994
aV146790404
p1995
aV972882176
p1996
aV271426097
p1997
aV418129911
p1998
aV3360312107
p1999
aV1165342207
p2000
aV517934877
p2001
aV340972113
p2002
aV1043011003
p2003
aV897054630
p2004
aV3332345854
p2005
aV795987146
p2006
aV25841488
p2007
aV3294274899
p2008
aV278210313
p2009
aV2908032201
p2010
aV867047323
p2011
aV410808584
p2012
aV787086834
p2013
aV221715205
p2014
aV398117986
p2015
aV1148226661
p2016
aV3307095255
p2017
aV2928096323
p2018
aV417947467
p2019
aV1006980080
p2020
aV2821366407
p2021
aV1168494282
p2022
aV1897601790
p2023
aV548738657
p2024
aV428304986
p2025
aV83115450
p2026
aV294700959
p2027
aV770466882
p2028
aV361263973
p2029
aV134277650
p2030
aV425879725
p2031
aV534607014
p2032
aV2232966812
p2033
aV3039370114
p2034
aV1057565262
p2035
aV185760677
p2036
aV469398862
p2037
ag2036
aV470180678
p2038
aV3241729859
p2039
aV3510108957
p2040
aV286757945
p2041
aV1209967848
p2042
aV3927720435
p2043
aV2906257133
p2044
aV3349971568
p2045
aV841426183
p2046
aV4359591857
p2047
aV2923267265
p2048
aV2264060948
p2049
aV1627031726
p2050
aV400040189
p2051
aV428041816
p2052
aV484944760
p2053
aV620321474
p2054
aV832829629
p2055
aV3237989343
p2056
aV835673826
p2057
aV1018103215
p2058
aV430130897
p2059
aV3880112603
p2060
aV3322636103
p2061
aV32130104
p2062
aV320840015
p2063
aV2242729885
p2064
aV459308081
p2065
aV125131319
p2066
aV1914216247
p2067
aV2918510248
p2068
aV2256453579
p2069
aV442833610
p2070
aV319735845
p2071
aV3168904809
p2072
aV212321005
p2073
aV464855487
p2074
aV547697806
p2075
aV2289505911
p2076
aV439546722
p2077
aV1465598504
p2078
aV516538314
p2079
aV1879306086
p2080
aV50314830
p2081
aV3289975816
p2082
aV492507818
p2083
aV853635661
p2084
aV14158218
p2085
aV136692380
p2086
aV233287464
p2087
aV298989108
p2088
aV1147564922
p2089
aV2800894666
p2090
aV712655180
p2091
aV74720430
p2092
aV397853516
p2093
aV101218055
p2094
aV1949749195
p2095
aV589995887
p2096
aV2497838698
p2097
aV486907657
p2098
aV600136789
p2099
aV1262576665
p2100
aV63146937
p2101
aV348433420
p2102
aV283636579
p2103
aV521439209
p2104
aV3489749657
p2105
aV127997714
p2106
aV234333956
p2107
aV3344032541
p2108
aV554226467
p2109
aV2375431070
p2110
aV3431278661
p2111
aV86543117
p2112
aV161044379
p2113
aV489421093
p2114
aV3026843492
p2115
aV3104176366
p2116
aV463994354
p2117
aV3176594760
p2118
aV24528653
p2119
aV470138322
p2120
aV1318257126
p2121
aV2833687216
p2122
aV3393519423
p2123
aV79164140
p2124
aV850686500
p2125
aV173787102
p2126
aV1060544983
p2127
aV73729776
p2128
aV433717645
p2129
aV112873259
p2130
aV393551120
p2131
aV334715057
p2132
aV612576300
p2133
aV430658390
p2134
aV3019885198
p2135
aV52686356
p2136
aV6831142
p2137
aV2733575715
p2138
aV215686278
p2139
aV332885533
p2140
aV997701421
p2141
aV52430971
p2142
aV592100212
p2143
aV2319748337
p2144
aV1679376193
p2145
aV978137395
p2146
aV460290015
p2147
aV1225787234
p2148
aV368819722
p2149
aV365462238
p2150
aV987646081
p2151
aV383754117
p2152
aV356050856
p2153
aV222930863
p2154
aV86177056
p2155
aV94788246
p2156
aV906911918
p2157
aV114041232
p2158
aV3413548221
p2159
aV585397603
p2160
aV544183052
p2161
aV43703232
p2162
aV1362473617
p2163
aV2504062057
p2164
aV555440706
p2165
aV177539420
p2166
aV1384446301
p2167
aV104613390
p2168
aV216148158
p2169
aV1084399818
p2170
aV2467961561
p2171
aV198822370
p2172
aV3380341456
p2173
aV2856804285
p2174
aV239806365
p2175
aV986828390
p2176
aV109001462
p2177
aV2323632758
p2178
aV2352090465
p2179
aV72239022
p2180
aV89425310
p2181
aV228891287
p2182
aV48140019
p2183
aV802015154
p2184
aV27390026
p2185
aV204701915
p2186
aV414174311
p2187
aV467309286
p2188
aV320253490
p2189
aV194308406
p2190
aV551735127
p2191
aV379270582
p2192
aV2454559204
p2193
aV592771212
p2194
aV260403270
p2195
aV2364054668
p2196
aV559021227
p2197
aV443828471
p2198
aV2894622238
p2199
aV589053788
p2200
aV3025124230
p2201
aV947879034
p2202
aV474023066
p2203
aV273436679
p2204
aV301492169
p2205
aV452320798
p2206
aV16972543
p2207
aV1055367092
p2208
aV2182598017
p2209
aV2731025530
p2210
aV408027768
p2211
aV275515317
p2212
aV4263992489
p2213
aV3290984981
p2214
aV2913976119
p2215
aV1334099833
p2216
aV2324261076
p2217
aV199348405
p2218
aV2398649716
p2219
aV126677638
p2220
aV16181946
p2221
aV600638391
p2222
aV413219642
p2223
aV92937715
p2224
aV207034666
p2225
aV2300060786
p2226
aV2305939896
p2227
aV2508844124
p2228
aV2980880855
p2229
aV510220284
p2230
aV3657203541
p2231
aV60836149
p2232
aV2844826614
p2233
aV399508912
p2234
aV2518713866
p2235
aV519606327
p2236
aV589445056
p2237
aV38177107
p2238
aV515350705
p2239
aV2901443565
p2240
aV1283518398
p2241
aV7414282
p2242
aV53719868
p2243
aV1112122506
p2244
aV612374141
p2245
aV564711063
p2246
aV865204212
p2247
aV1402688845
p2248
aV425875170
p2249
aV2786310392
p2250
aV1471608194
p2251
aV304085872
p2252
aV2241594340
p2253
aV619345668
p2254
aV452985926
p2255
aV2562814182
p2256
aV1347344792
p2257
aV84428713
p2258
aV2247772809
p2259
aV3368018859
p2260
aV595426729
p2261
aV424535659
p2262
aV2885498531
p2263
aV2553194552
p2264
aV4393119563
p2265
aV2560586103
p2266
aV420681526
p2267
aV989485837
p2268
aV244924359
p2269
aV89725078
p2270
aV3652692561
p2271
aV2952846255
p2272
aV341402071
p2273
aV813423962
p2274
aV1313409793
p2275
aV436057745
p2276
aV3224669813
p2277
aV40353863
p2278
aV1077736116
p2279
aV2464236962
p2280
aV476224626
p2281
aV987220201
p2282
aV59441868
p2283
aV160154554
p2284
aV236332690
p2285
aV112018690
p2286
aV1178411384
p2287
aV465753888
p2288
aV759769454
p2289
aV116204709
p2290
aV364189418
p2291
aV260626836
p2292
aV1390614042
p2293
aV3830724435
p2294
aV2256151688
p2295
aV2356163072
p2296
aV3325280073
p2297
aV989686651
p2298
aV520472276
p2299
aV4026571785
p2300
aV400791985
p2301
aV2310322492
p2302
aV245527488
p2303
aV848977592
p2304
aV516396544
p2305
aV87006792
p2306
aV1120206308
p2307
aV210855815
p2308
aV558115587
p2309
aV1219284355
p2310
aV238157823
p2311
aV3028799284
p2312
aV85171931
p2313
aV584529887
p2314
aV452350565
p2315
aV3295037085
p2316
aV414054458
p2317
aV428447147
p2318
aV96338614
p2319
aV2481932156
p2320
aV24319564
p2321
aV3395698721
p2322
aV475325454
p2323
aV339218501
p2324
aV2859316269
p2325
aV25705795
p2326
aV2840190665
p2327
aV538108617
p2328
aV410977365
p2329
aV412434801
p2330
aV3312074974
p2331
aV541110896
p2332
aV354125985
p2333
aV436790285
p2334
aV220932972
p2335
aV605374824
p2336
aV3302069128
p2337
aV2385542598
p2338
aV387329229
p2339
aV538975251
p2340
aV4203479596
p2341
aV1275239096
p2342
aV864546176
p2343
aV1059013326
p2344
aV400104977
p2345
aV20901690
p2346
aV466895759
p2347
aV379834490
p2348
aV2205694521
p2349
aV2164368999
p2350
aV1580176014
p2351
aV504658270
p2352
aV2347131464
p2353
aV2433235432
p2354
aV3676549834
p2355
aV2347976048
p2356
aV291678033
p2357
aV701220226
p2358
aV4462277655
p2359
aV602903174
p2360
aV881152387
p2361
aV986811270
p2362
aV2733334557
p2363
aV541711061
p2364
aV554724544
p2365
aV3987937325
p2366
aV1295567060
p2367
aV2509918446
p2368
aV1628491112
p2369
aV3904694413
p2370
aV890487476
p2371
aV1249070846
p2372
aV144968778
p2373
aV165704298
p2374
aV1848219511
p2375
aV399880400
p2376
aV540147645
p2377
aV324108553
p2378
aV508767551
p2379
aV4143660646
p2380
aV2367801333
p2381
aV2909929737
p2382
aV104135821
p2383
aV2267206189
p2384
aV3087139251
p2385
aV502088575
p2386
aV515650307
p2387
aV1515162415
p2388
aV1375132658
p2389
aV109623512
p2390
aV2294113810
p2391
aV3050995828
p2392
aV377465277
p2393
aV481289758
p2394
aV2725872804
p2395
aV475327947
p2396
aV375225714
p2397
aV1349260404
p2398
aV529277111
p2399
aV2816474467
p2400
aV2921101594
p2401
aV1269254030
p2402
aV188277545
p2403
aV875178422
p2404
aV1364490824
p2405
aV41893618
p2406
aV331888803
p2407
aV504796415
p2408
aV484073648
p2409
aV1485951925
p2410
aV1128219560
p2411
aV2924129362
p2412
aV3233906221
p2413
aV544952446
p2414
aV559265836
p2415
aV316621477
p2416
aV3862086448
p2417
aV967431260
p2418
aV2176575594
p2419
aV2987412238
p2420
aV2571873035
p2421
aV1375321555
p2422
aV118322012
p2423
aV2242835089
p2424
aV3311117236
p2425
aV3074579511
p2426
aV126691082
p2427
aV301377853
p2428
aV2478544539
p2429
aV136919210
p2430
aV4399287099
p2431
aV1448557296
p2432
aV1111665702
p2433
aV917452141
p2434
aV708773624
p2435
aV577226307
p2436
aV229089974
p2437
aV1473979718
p2438
aV2740523219
p2439
aV3010952651
p2440
aV2484989746
p2441
aV2214539367
p2442
aV397418015
p2443
aV743239494
p2444
aV29269332
p2445
aV490110270
p2446
aV434752212
p2447
aV443545676
p2448
aV3315474928
p2449
aV828717014
p2450
aV2927207759
p2451
aV227291830
p2452
aV288339892
p2453
aV552569858
p2454
aV485521993
p2455
aV421983510
p2456
aV135468458
p2457
aV170781140
p2458
aV1501102405
p2459
aV2687173103
p2460
aV1456748695
p2461
aV560046823
p2462
aV251663248
p2463
aV2206433337
p2464
aV46368697
p2465
aV3033274521
p2466
aV2595566549
p2467
aV238520291
p2468
aV482482833
p2469
aV218802644
p2470
aV4193359636
p2471
aV382289387
p2472
aV2230379240
p2473
aV1594184960
p2474
aV4212825183
p2475
aV255444050
p2476
aV1019759222
p2477
aV22604481
p2478
aV161668546
p2479
aV428283634
p2480
aV969981643
p2481
aV1083889141
p2482
aV521726173
p2483
aV483816390
p2484
aV1039152966
p2485
aV1931378250
p2486
aV633562754
p2487
aV102223854
p2488
aV3383450651
p2489
aV126611134
p2490
aV1186194139
p2491
aV517983416
p2492
aV1261614984
p2493
aV2227676110
p2494
aV2380747454
p2495
aV1492253576
p2496
aV1914286562
p2497
aV999469686
p2498
aV1259041459
p2499
aV417101186
p2500
aV2315044228
p2501
aV296484280
p2502
aV1688073932
p2503
aV455042529
p2504
aV123494040
p2505
aV2312924206
p2506
aV585883841
p2507
aV1965662701
p2508
aV135207738
p2509
aV2353626330
p2510
aV1224757622
p2511
aV3295308224
p2512
aV45079777
p2513
aV424239544
p2514
aV190320037
p2515
aV2474570322
p2516
aV1176004074
p2517
aV390835478
p2518
aV536350939
p2519
aV482969926
p2520
aV342366415
p2521
aV331572952
p2522
aV319822986
p2523
aV414175238
p2524
aV2913826426
p2525
aV329501112
p2526
aV237488812
p2527
aV404946715
p2528
aV703555766
p2529
aV3344001694
p2530
aV173389528
p2531
aV566134449
p2532
aV455937572
p2533
aV1236155377
p2534
aV541527026
p2535
aV564504241
p2536
aV4236994403
p2537
aV367081362
p2538
aV4396667315
p2539
aV101057515
p2540
aV2863572039
p2541
aV233182291
p2542
aV1189981854
p2543
aV581801913
p2544
aV3297108689
p2545
aV1230607256
p2546
aV558031145
p2547
aV407759268
p2548
aV52337911
p2549
aV2811521884
p2550
aV1233468889
p2551
aV2754352477
p2552
aV3763613897
p2553
aV226553432
p2554
aV264994825
p2555
aV428877231
p2556
aV540918034
p2557
aV240153945
p2558
aV3357091883
p2559
aV76652878
p2560
aV3405634973
p2561
aV439081205
p2562
aV2973508025
p2563
aV24669526
p2564
aV15491749
p2565
aV60624922
p2566
aV2359606456
p2567
aV2679802873
p2568
aV485844145
p2569
aV2265398249
p2570
aV860205385
p2571
aV184409446
p2572
aV1205594306
p2573
aV993849391
p2574
aV1566329647
p2575
aV51424590
p2576
aV3305976862
p2577
aV3610762348
p2578
aV14210150
p2579
aV535447658
p2580
aV1182556152
p2581
aV530990399
p2582
aV2386835695
p2583
aV2506237877
p2584
aV1135092072
p2585
aV1053480445
p2586
aV369728921
p2587
aV821785003
p2588
aV112499747
p2589
aV501691674
p2590
aV456786635
p2591
aV2206966849
p2592
aV815134452
p2593
aV519379680
p2594
aV491591759
p2595
aV1134238657
p2596
aV2798863589
p2597
aV158076488
p2598
aV394837520
p2599
aV386460582
p2600
aV368959303
p2601
ag2601
aV2835640580
p2602
aV1331086867
p2603
aV521232851
p2604
aV964093010
p2605
aV2852316766
p2606
aV173427121
p2607
aV17528115
p2608
aV4343184923
p2609
aV1152164840
p2610
aV1521455803
p2611
aV737267550
p2612
aV1485131724
p2613
aV484947173
p2614
aV968509314
p2615
aV465731435
p2616
aV405559544
p2617
aV478527079
p2618
aV9806412
p2619
aV411713932
p2620
aV414015583
p2621
aV2243639919
p2622
aV265310795
p2623
aV199923959
p2624
aV69570112
p2625
aV84394594
p2626
aV61877999
p2627
aV2152285137
p2628
aV2980216701
p2629
aV426079148
p2630
aV399337255
p2631
aV163999582
p2632
aV154482436
p2633
aV1971946628
p2634
aV379656666
p2635
aV1384301958
p2636
aV457442858
p2637
aV723529975
p2638
aV984646254
p2639
aV406906451
p2640
aV400144694
p2641
aV56730637
p2642
aV85590368
p2643
aV1357710228
p2644
aV1229478864
p2645
aV445414490
p2646
aV173887749
p2647
aV2792094531
p2648
aV400701610
p2649
aV210559227
p2650
aV1387851930
p2651
aV258758131
p2652
aV1709866242
p2653
aV1160666808
p2654
aV3052918302
p2655
aV1195176624
p2656
aV273808150
p2657
aV3373542711
p2658
aV341958175
p2659
aV83635221
p2660
aV4104008895
p2661
aV1393068738
p2662
aV319074916
p2663
aV1168596805
p2664
aV2514280781
p2665
aV2424047370
p2666
aV155695954
p2667
aV120055031
p2668
aV1318135856
p2669
aV2778061603
p2670
aV507219742
p2671
aV51781061
p2672
aV1539525816
p2673
aV502224731
p2674
aV3051967217
p2675
aV3025669096
p2676
aV67875760
p2677
aV2403776046
p2678
aV502998687
p2679
aV4156188682
p2680
aV547635512
p2681
aV484164719
p2682
aV379424449
p2683
aV292839947
p2684
aV3874559301
p2685
aV1368152558
p2686
aV411636230
p2687
aV546407070
p2688
aV1222227577
p2689
aV305700098
p2690
aV2270677064
p2691
aV205675319
p2692
aV430437851
p2693
aV507382148
p2694
aV2153812941
p2695
aV328133320
p2696
aV556645018
p2697
aV185972459
p2698
aV430811207
p2699
aV2884438281
p2700
aV407891527
p2701
aV219953859
p2702
aV831819007
p2703
aV798910302
p2704
aV382566908
p2705
aV48996987
p2706
aV1251971718
p2707
aV62973025
p2708
aV262539190
p2709
aV453102846
p2710
aV139156271
p2711
aV415723110
p2712
aV3014877143
p2713
aV1322253120
p2714
aV483057595
p2715
aV3244896868
p2716
aV108985077
p2717
aV413354451
p2718
aV299064667
p2719
aV2322734663
p2720
aV1857528240
p2721
aV3136401771
p2722
aV479574545
p2723
aV503223395
p2724
aV2897102163
p2725
aV158288741
p2726
aV3741476776
p2727
aV985271810
p2728
aV574185238
p2729
aV63724352
p2730
aV2274864163
p2731
aV1239391705
p2732
aV3922344275
p2733
aV4205673681
p2734
aV62940685
p2735
aV920798731
p2736
aV1251326239
p2737
aV4074742552
p2738
aV599651301
p2739
aV529424484
p2740
aV281884852
p2741
aV929249360
p2742
aV741147210
p2743
aV1230984068
p2744
aV2360749273
p2745
aV982393232
p2746
aV2911276928
p2747
aV408734014
p2748
aV1073944038
p2749
aV3018071511
p2750
aV3906518420
p2751
aV2722963863
p2752
aV87467449
p2753
aV391450948
p2754
aV421347689
p2755
aV138193677
p2756
aV484850334
p2757
aV4092569631
p2758
aV714002059
p2759
aV1563645876
p2760
aV2379017327
p2761
aV513144334
p2762
aV3994516221
p2763
aV74967990
p2764
aV4185660388
p2765
aV1448082108
p2766
aV463657116
p2767
aV100004676
p2768
aV355122344
p2769
aV2174691850
p2770
aV3236461487
p2771
aV467659856
p2772
aV476866628
p2773
aV761405287
p2774
aV776771798
p2775
aV3956199196
p2776
aV402699800
p2777
aV38269888
p2778
aV2792420764
p2779
aV377249236
p2780
aV277736380
p2781
aV2236596060
p2782
aV1560154380
p2783
aV1015581775
p2784
aV2700943066
p2785
aV2697928806
p2786
aV483898363
p2787
aV2288167912
p2788
aV2573427126
p2789
aV1853857640
p2790
aV421870063
p2791
aV615943451
p2792
aV2347214257
p2793
aV149901115
p2794
aV2618359840
p2795
aV581752139
p2796
aV465921722
p2797
aV2761838277
p2798
aV435760551
p2799
aV1024976264
p2800
aV991671421
p2801
aV865193857
p2802
aV2942092258
p2803
aV1009243501
p2804
aV107958152
p2805
aV3084965903
p2806
aV561951458
p2807
aV416466936
p2808
aV4454486602
p2809
aV2821597763
p2810
aV2516807525
p2811
aV446450310
p2812
aV2361599979
p2813
aV2944294475
p2814
aV50591969
p2815
aV260029948
p2816
aV490712400
p2817
aV399004609
p2818
aV1099354861
p2819
aV437775911
p2820
aV325760306
p2821
aV1045573032
p2822
aV314537220
p2823
aV1177798368
p2824
aV77575418
p2825
aV2900670142
p2826
aV534489041
p2827
aV2184417408
p2828
aV2790341995
p2829
aV380526746
p2830
aV1307016348
p2831
aV3927110309
p2832
aV2595386913
p2833
aV2852677474
p2834
aV725664950
p2835
aV2772740636
p2836
aV2248757802
p2837
aV156680335
p2838
aV1404778308
p2839
aV1553447190
p2840
aV453341089
p2841
aV2775827332
p2842
aV446781043
p2843
aV2260822969
p2844
aV519596424
p2845
aV283609509
p2846
aV873102624
p2847
aV1426399706
p2848
aV174857576
p2849
aV242922585
p2850
aV897174570
p2851
aV3399787517
p2852
aV36030252
p2853
aV585775598
p2854
aV1425435948
p2855
aV547936685
p2856
aV4218351261
p2857
aV418628008
p2858
aV2748105759
p2859
aV482958648
p2860
aV366433460
p2861
aV461962554
p2862
aV37507247
p2863
aV251220071
p2864
aV142062037
p2865
aV532365440
p2866
aV3816198827
p2867
aV233245609
p2868
aV2707633856
p2869
aV1270735285
p2870
aV1179157244
p2871
aV342118728
p2872
aV3062742731
p2873
aV159211191
p2874
aV1006685844
p2875
aV447966202
p2876
aV353020943
p2877
aV215728045
p2878
aV1208711262
p2879
aV2237890609
p2880
aV2872974977
p2881
aV548256952
p2882
aV2417373536
p2883
aV109216039
p2884
aV894084606
p2885
aV1037286848
p2886
aV213254229
p2887
aV1324250802
p2888
aV2391186193
p2889
aV1094947446
p2890
aV1327803948
p2891
aV3430185532
p2892
aV132116889
p2893
aV447896469
p2894
aV2951279819
p2895
aV3361200257
p2896
aV93956950
p2897
aV2357841549
p2898
aV570873859
p2899
aV14422917
p2900
aV2241801447
p2901
aV440877283
p2902
aV158347406
p2903
aV118696253
p2904
aV2692788792
p2905
aV2429027969
p2906
aV2611745579
p2907
aV472185426
p2908
aV217698624
p2909
aV1227444686
p2910
aV516890828
p2911
aV910575205
p2912
aV439880852
p2913
aV3028809503
p2914
aV424355891
p2915
aV83125194
p2916
aV485257388
p2917
aV460611317
p2918
aV1853534322
p2919
aV205318213
p2920
aV411587862
p2921
aV118323847
p2922
aV130251870
p2923
aV311662324
p2924
aV14382261
p2925
aV3697012276
p2926
aV1092427986
p2927
aV1626713857
p2928
aV414108131
p2929
aV2754433686
p2930
aV1225509780
p2931
aV1297086944
p2932
aV157059338
p2933
aV293440037
p2934
aV1095283754
p2935
aV3036352179
p2936
aV1540142966
p2937
aV115336009
p2938
aV1226074158
p2939
aV1006446434
p2940
aV1283797260
p2941
aV836504312
p2942
aV2409309289
p2943
aV1370300701
p2944
aV477934480
p2945
aV633728787
p2946
aV549605964
p2947
aV448364257
p2948
aV1953930264
p2949
aV3056998079
p2950
aV1594040222
p2951
aV3024813099
p2952
aV443187387
p2953
aV1215433375
p2954
aV366262043
p2955
aV553529776
p2956
aV2807273278
p2957
aV1066130568
p2958
aV9420122
p2959
aV418210914
p2960
aV401314101
p2961
aV1095188802
p2962
aV86936133
p2963
aV1647932094
p2964
aV2519931744
p2965
aV579867137
p2966
aV339531105
p2967
aV869315514
p2968
aV1976450136
p2969
aV18556005
p2970
aV631810976
p2971
aV815322025
p2972
aV2568980217
p2973
aV2816273194
p2974
aV3992833575
p2975
aV1451185675
p2976
aV1260351403
p2977
aV2477022054
p2978
aV96565372
p2979
aV206286987
p2980
aV1459430522
p2981
aV411018458
p2982
aV2569072195
p2983
aV135547288
p2984
aV426163029
p2985
aV423531049
p2986
aV708670772
p2987
aV1389123690
p2988
aV2179652340
p2989
aV560540704
p2990
aV178070035
p2991
aV3349769051
p2992
aV2448102733
p2993
aV162299221
p2994
aV164294854
p2995
aV3321847540
p2996
aV2219917010
p2997
aV2601181536
p2998
aV3053055853
p2999
aV3053183649
p3000
aV2762033701
p3001
aV48142375
p3002
aV2962772146
p3003
aV393447102
p3004
aV2466256099
p3005
aV32433220
p3006
aV1712830392
p3007
aV2987000517
p3008
aV1223037354
p3009
aV2431061097
p3010
aV321021835
p3011
aV1913784829
p3012
aV1299375126
p3013
aV312237853
p3014
aV178685251
p3015
aV1261505730
p3016
aV3902252362
p3017
aV430776718
p3018
aV2480462256
p3019
aV261635806
p3020
aV3069933261
p3021
aV403666635
p3022
aV394734481
p3023
aV1251138642
p3024
aV304885421
p3025
aV1225295930
p3026
aV456453383
p3027
aV22756508
p3028
aV1364422662
p3029
aV811565292
p3030
aV2951587293
p3031
aV2880857926
p3032
aV931151749
p3033
aV2298294082
p3034
aV1018561458
p3035
aV272521191
p3036
aV1352568188
p3037
aV296197775
p3038
aV1159355300
p3039
aV3404352773
p3040
aV377010628
p3041
aV1270269787
p3042
aV779870528
p3043
aV2769827087
p3044
aV371318838
p3045
aV2369487383
p3046
aV406360666
p3047
aV6361512
p3048
aV2996445083
p3049
aV2967853233
p3050
aV121810771
p3051
aV931485422
p3052
aV1145574164
p3053
aV2681732816
p3054
aV11198782
p3055
aV53909153
p3056
aV2885630548
p3057
aV395972330
p3058
aV270623814
p3059
aV784525968
p3060
aV3852711633
p3061
aV1095063440
p3062
aV393342562
p3063
aV423495022
p3064
aV1282855974
p3065
aV532463016
p3066
aV2447306083
p3067
aV1050697136
p3068
aV35865504
p3069
aV521031427
p3070
aV334238732
p3071
aV869514487
p3072
aV420382836
p3073
aV3037643774
p3074
aV802635019
p3075
aV497382096
p3076
aV3143446869
p3077
aV119225713
p3078
aV2322781029
p3079
aV1341462944
p3080
aV2215399657
p3081
aV837137419
p3082
aV2200075155
p3083
aV581649683
p3084
aV223899265
p3085
aV2486841155
p3086
aV589286587
p3087
aV443910842
p3088
aV2267467915
p3089
aV213616021
p3090
aV2311659592
p3091
aV218483200
p3092
aV3344043653
p3093
aV765933168
p3094
aV1510132044
p3095
aV2371137846
p3096
aV1088677627
p3097
aV13159862
p3098
aV1645080085
p3099
aV2215875144
p3100
aV2883096995
p3101
aV2850074284
p3102
aV518708180
p3103
aV555869032
p3104
aV500868373
p3105
aV3183593051
p3106
aV2272833962
p3107
aV1246995998
p3108
aV1320078122
p3109
aV588192560
p3110
aV317278377
p3111
aV479058639
p3112
aV341157964
p3113
aV1870641289
p3114
aV2752353844
p3115
aV841387776
p3116
aV435192766
p3117
aV291307591
p3118
aV1353602473
p3119
aV400995674
p3120
aV40549283
p3121
aV1670212740
p3122
aV1539421987
p3123
aV1843782967
p3124
aV71101905
p3125
aV2870641254
p3126
aV593793020
p3127
aV2570997037
p3128
aV2237570059
p3129
aV270050737
p3130
aV1898775072
p3131
aV510813674
p3132
aV537300588
p3133
aV276497372
p3134
aV136275685
p3135
aV528764269
p3136
aV3353878534
p3137
aV634434387
p3138
aV3917787622
p3139
aV2903742123
p3140
aV524156401
p3141
aV593523410
p3142
aV275461547
p3143
aV3036230170
p3144
aV156573573
p3145
aV382539264
p3146
aV3247420000
p3147
aV3357308483
p3148
aV306661850
p3149
aV2791075913
p3150
aV493901532
p3151
aV99907056
p3152
aV26762533
p3153
aV412936122
p3154
aV2463639932
p3155
aV3004731024
p3156
aV1101963793
p3157
aV207907690
p3158
aV592489826
p3159
aV1022753149
p3160
aV348323243
p3161
aV1394078202
p3162
aV4076823377
p3163
aV1691241241
p3164
aV2686892396
p3165
aV2352305154
p3166
aV204797204
p3167
aV3147441667
p3168
aV3332678698
p3169
aV545207960
p3170
aV1169506849
p3171
aV627367368
p3172
aV2314315157
p3173
aV446490092
p3174
aV470257543
p3175
aV252979181
p3176
aV1231863680
p3177
aV3094835193
p3178
aV55202918
p3179
aV457595242
p3180
aV347497240
p3181
aV949372327
p3182
aV1312010358
p3183
aV438849246
p3184
aV2363490707
p3185
aV447092727
p3186
aV2506809027
p3187
aV494245231
p3188
aV394274603
p3189
aV445628362
p3190
aV1499347417
p3191
aV495623215
p3192
aV340762707
p3193
aV498886373
p3194
aV2837947463
p3195
aV222409931
p3196
aV1726668865
p3197
aV1026768444
p3198
aV16537991
p3199
aV2491744315
p3200
aV425303518
p3201
aV2333071543
p3202
aV336682786
p3203
aV2735109711
p3204
aV755139954
p3205
aV1100783203
p3206
aV13423502
p3207
aV104859628
p3208
aV966297074
p3209
aV766445270
p3210
aV160834737
p3211
aV1397913619
p3212
aV514500420
p3213
aV1492509740
p3214
aV194275021
p3215
aV2237873228
p3216
aV582622919
p3217
aV243102174
p3218
aV361858818
p3219
aV478681822
p3220
aV2612291988
p3221
aV434857982
p3222
aV3014801056
p3223
aV100503591
p3224
aV548812043
p3225
aV296179562
p3226
aV1349179320
p3227
aV1951828382
p3228
aV1640886434
p3229
aV276596962
p3230
aV516238138
p3231
aV3093250915
p3232
aV1189298618
p3233
aV269228642
p3234
aV233597865
p3235
aV452151464
p3236
aV2164878096
p3237
aV3365604855
p3238
aV2974523253
p3239
aV1160278561
p3240
aV225490204
p3241
aV1338703794
p3242
aV54697129
p3243
aV543251083
p3244
aV250825186
p3245
aV414691853
p3246
aV99437903
p3247
aV1951407043
p3248
aV375720674
p3249
aV535417375
p3250
aV1695038923
p3251
aV1103165600
p3252
aV116501665
p3253
aV516918398
p3254
aV293456496
p3255
aV1017816156
p3256
aV2831366043
p3257
aV2762076128
p3258
aV1070289462
p3259
aV272317881
p3260
aV379667294
p3261
aV2401379437
p3262
aV306058431
p3263
aV2211388062
p3264
aV120380619
p3265
aV3303829486
p3266
aV417214243
p3267
aV3805656557
p3268
aV68492512
p3269
aV701764412
p3270
aV2482396225
p3271
aV428516674
p3272
aV29019897
p3273
aV1015845079
p3274
aV381150459
p3275
aV620986746
p3276
aV577065426
p3277
aV477753740
p3278
aV1204521444
p3279
aV100530020
p3280
aV2804233346
p3281
aV1672302936
p3282
aV401438300
p3283
aV479619334
p3284
aV387761675
p3285
aV863232396
p3286
aV2858924206
p3287
aV194310453
p3288
aV3308223903
p3289
aV1432573375
p3290
aV4181131294
p3291
aV852980726
p3292
aV992798082
p3293
aV128821746
p3294
aV1221335432
p3295
aV3031188244
p3296
aV2242877744
p3297
aV549816346
p3298
aV1527761478
p3299
aV2291248743
p3300
aV845014916
p3301
aV968773807
p3302
aV2923501121
p3303
aV3365655604
p3304
aV1712479022
p3305
aV2553088650
p3306
aV4476227909
p3307
aV635239196
p3308
aV535318339
p3309
aV3369517217
p3310
aV289816423
p3311
aV3549001695
p3312
aV3034711797
p3313
aV253714436
p3314
aV1042252711
p3315
aV392679513
p3316
aV964719079
p3317
aV2780354471
p3318
aV2360647972
p3319
aV405919398
p3320
aV27276611
p3321
aV486161556
p3322
aV1009626624
p3323
aV4188671596
p3324
aV1142166511
p3325
aV108663704
p3326
aV43967155
p3327
aV379030092
p3328
aV2866076206
p3329
aV2444235358
p3330
aV133354245
p3331
aV463065299
p3332
aV73605903
p3333
aV414345542
p3334
aV2632275819
p3335
aV481416521
p3336
aV933820303
p3337
aV431084648
p3338
aV81894499
p3339
aV418957976
p3340
aV120702092
p3341
aV407984838
p3342
aV2281160869
p3343
aV524321608
p3344
aV2541037510
p3345
aV378831710
p3346
aV296876973
p3347
aV247700175
p3348
aV407044850
p3349
aV1664716250
p3350
aV61810486
p3351
aV4113684196
p3352
aV2913833871
p3353
aV588166200
p3354
aV245378986
p3355
aV589836989
p3356
aV53375976
p3357
aV3292939220
p3358
aV1051114320
p3359
aV141145288
p3360
aV138368536
p3361
aV1444012675
p3362
aV882003036
p3363
aV3326859207
p3364
aV497763567
p3365
aV2358917158
p3366
aV81398403
p3367
aV1446338094
p3368
aV1276381135
p3369
aV2313730658
p3370
aV808531951
p3371
aV2339980723
p3372
aV470165776
p3373
aV1422764864
p3374
aV551303014
p3375
aV234416941
p3376
aV630358566
p3377
aV1117098650
p3378
aV419443005
p3379
aV2527352064
p3380
aV780444222
p3381
aV2953487277
p3382
aV965866273
p3383
aV771609067
p3384
aV3155682418
p3385
aV1316655810
p3386
aV418068074
p3387
aV3291752746
p3388
aV79570663
p3389
aV268786979
p3390
aV324399414
p3391
aV142807042
p3392
aV1975150249
p3393
aV272382855
p3394
aV2239697994
p3395
aV38196064
p3396
aV170019149
p3397
aV303766894
p3398
aV2965016369
p3399
aV1369327219
p3400
aV24398244
p3401
aV437031113
p3402
aV2942230271
p3403
aV579271577
p3404
aV55303604
p3405
aV2940477129
p3406
aV326316197
p3407
aV435695882
p3408
aV22127498
p3409
aV596558051
p3410
aV2361454653
p3411
aV4031821762
p3412
aV397919767
p3413
aV845313296
p3414
aV3047714690
p3415
aV1359357403
p3416
aV885303356
p3417
aV1000188997
p3418
aV4416616611
p3419
aV1017082645
p3420
aV274945913
p3421
aV3410001821
p3422
aV81809541
p3423
aV2433727925
p3424
aV406909998
p3425
aV1063332403
p3426
aV1028180126
p3427
aV92602577
p3428
aV2870507268
p3429
aV571979949
p3430
aV543774554
p3431
aV440826500
p3432
aV1286484354
p3433
aV557827565
p3434
aV32415513
p3435
aV384927198
p3436
aV377990978
p3437
aV558562917
p3438
aV450712216
p3439
aV207113315
p3440
aV941761956
p3441
aV1462993410
p3442
aV3385872369
p3443
aV916488306
p3444
aV11080682
p3445
aV3251331238
p3446
aV2359620656
p3447
aV181119521
p3448
aV447828290
p3449
aV525853329
p3450
aV890819750
p3451
aV2226318312
p3452
aV1901331644
p3453
aV164272724
p3454
aV3246313247
p3455
aV420635476
p3456
aV417138474
p3457
aV790099830
p3458
aV1074442771
p3459
aV60281313
p3460
aV365259467
p3461
aV3207851296
p3462
aV565615102
p3463
aV278425671
p3464
aV184762660
p3465
aV1933089896
p3466
aV2162233671
p3467
aV1394750035
p3468
aV930285348
p3469
aV2217674274
p3470
aV441676801
p3471
aV1595924948
p3472
aV1541464447
p3473
aV2336704848
p3474
aV80040362
p3475
aV87286001
p3476
aV3499486155
p3477
aV1084193910
p3478
aV416429594
p3479
aV457827532
p3480
aV576139081
p3481
aV277419134
p3482
aV1713152299
p3483
aV2354704705
p3484
aV2805259787
p3485
aV2251943851
p3486
aV3349425513
p3487
aV481972353
p3488
aV2321252292
p3489
aV408738224
p3490
aV120812398
p3491
aV3417233499
p3492
aV899952481
p3493
aV2198507410
p3494
aV4397611109
p3495
aV100463796
p3496
aV4319877856
p3497
aV428094919
p3498
aV166949118
p3499
aV1035190398
p3500
aV617568555
p3501
aV3299183837
p3502
aV241960021
p3503
aV2611945494
p3504
aV203000387
p3505
aV366094500
p3506
aV111316371
p3507
aV2797440824
p3508
aV587326472
p3509
aV989421763
p3510
aV216179459
p3511
aV475856875
p3512
aV353640576
p3513
aV490736218
p3514
aV2532491303
p3515
aV3334413143
p3516
aV474560788
p3517
aV107021911
p3518
aV522467811
p3519
aV2396252383
p3520
aV2348140042
p3521
aV373395657
p3522
aV4387286267
p3523
aV3150260316
p3524
aV387022949
p3525
aV33994488
p3526
aV22896719
p3527
aV864457176
p3528
aV602086426
p3529
aV262100774
p3530
aV908206586
p3531
aV235906003
p3532
aV124543826
p3533
aV341787417
p3534
aV603304951
p3535
aV3314955844
p3536
aV738144632
p3537
aV2941965455
p3538
aV387067067
p3539
aV131939419
p3540
aV3337795559
p3541
aV49948347
p3542
aV2942381427
p3543
aV470078914
p3544
aV855410450
p3545
aV340846509
p3546
aV476051821
p3547
aV1385223960
p3548
aV14324681
p3549
aV175315567
p3550
aV520206776
p3551
aV1384894520
p3552
aV2588246800
p3553
aV548605216
p3554
aV453164881
p3555
aV3345478055
p3556
aV4188597509
p3557
aV1063355172
p3558
aV2725178549
p3559
aV3047862489
p3560
aV2168651339
p3561
aV630342474
p3562
aV375814922
p3563
aV336996257
p3564
aV3795933213
p3565
aV1368113851
p3566
aV453846835
p3567
aV347185692
p3568
aV717667839
p3569
aV1485090944
p3570
aV3295023377
p3571
aV989192558
p3572
aV264117723
p3573
aV2958351993
p3574
aV894946183
p3575
aV2229900724
p3576
aV171104729
p3577
aV1263818557
p3578
aV2251852801
p3579
aV514622071
p3580
aV807581581
p3581
aV1142469860
p3582
aV2992986250
p3583
aV172170794
p3584
aV570178300
p3585
aV1314119718
p3586
aV2924378676
p3587
aV66075722
p3588
aV931508288
p3589
aV513335052
p3590
aV106738070
p3591
aV1400701532
p3592
aV2785463902
p3593
aV2367055176
p3594
aV424241865
p3595
aV601224616
p3596
aV3367488407
p3597
aV311499463
p3598
aV972865850
p3599
aV1283881934
p3600
aV476811892
p3601
aV520617010
p3602
aV915783084
p3603
aV503396288
p3604
aV2858759915
p3605
aV3161637515
p3606
aV1084360147
p3607
aV271541039
p3608
aV60995609
p3609
aV1734368941
p3610
aV70971449
p3611
aV2842557071
p3612
aV702772318
p3613
aV319166186
p3614
aV3053010231
p3615
aV1385492502
p3616
aV3700589357
p3617
aV1386751423
p3618
aV3104699938
p3619
aV15909678
p3620
aV494859840
p3621
aV426106156
p3622
aV251073243
p3623
aV14867447
p3624
aV397572858
p3625
aV984780494
p3626
aV475827565
p3627
aV477839874
p3628
aV2597695185
p3629
aV2939751015
p3630
aV2865163260
p3631
aV2946879676
p3632
aV405426716
p3633
aV3008182149
p3634
aV401947052
p3635
aV14420623
p3636
aV2311805449
p3637
aV1890600458
p3638
aV2813579953
p3639
aV1117558933
p3640
aV255107842
p3641
aV4156354113
p3642
aV394105608
p3643
aV2373923148
p3644
aV1475388408
p3645
aV2543955497
p3646
aV541112195
p3647
aV4427171717
p3648
aV1092670394
p3649
aV4282565062
p3650
aV3304531013
p3651
aV1875163214
p3652
aV403661381
p3653
aV1274596976
p3654
aV2621137109
p3655
aV1262007300
p3656
aV143141253
p3657
aV2467489015
p3658
aV305694390
p3659
aV316393390
p3660
aV322054650
p3661
aV393494421
p3662
aV1393825116
p3663
aV2255408790
p3664
aV970562868
p3665
aV2898799713
p3666
aV4480483217
p3667
aV632742781
p3668
aV2942318545
p3669
aV475096817
p3670
aV734809080
p3671
aV2358353824
p3672
aV96389952
p3673
aV424434328
p3674
aV2586630188
p3675
aV313250086
p3676
aV55251916
p3677
aV325127006
p3678
aV2359448190
p3679
ag3678
aV497338384
p3680
aV1289725328
p3681
aV2845253806
p3682
aV113358672
p3683
aV2375216695
p3684
aV3288969585
p3685
aV164373078
p3686
aV72230187
p3687
aV1170295874
p3688
aV2512838100
p3689
aV90597064
p3690
aV1699269889
p3691
aV1958354820
p3692
aV618004692
p3693
aV1204436581
p3694
aV297599017
p3695
aV1010825234
p3696
aV309178760
p3697
aV2182403667
p3698
aV3103929401
p3699
aV319524179
p3700
aV1053176233
p3701
aV1266649207
p3702
aV268910347
p3703
aV802320974
p3704
aV829634400
p3705
aV252119166
p3706
aV309208127
p3707
aV2233576052
p3708
aV2232915432
p3709
aV321281844
p3710
aV1216273854
p3711
aV770905842
p3712
aV1364346350
p3713
aV1156611540
p3714
aV970095434
p3715
aV1189743062
p3716
aV2717902222
p3717
aV1372944860
p3718
aV120748557
p3719
aV413555669
p3720
aV444094538
p3721
aV840241477
p3722
aV3303033640
p3723
aV337570383
p3724
aV3363045929
p3725
aV2739458595
p3726
aV581808446
p3727
aV2463076201
p3728
aV1366886233
p3729
aV320368915
p3730
aV1230556524
p3731
aV451539704
p3732
aV945761317
p3733
aV202561353
p3734
aV244082347
p3735
aV845781758
p3736
aV494877290
p3737
aV443696168
p3738
aV224227864
p3739
aV17373946
p3740
aV387818236
p3741
aV3095435091
p3742
aV98609050
p3743
aV1424197706
p3744
aV3107458432
p3745
aV148077231
p3746
aV518549338
p3747
aV1215628212
p3748
aV2351364017
p3749
aV2786985789
p3750
aV118377371
p3751
aV515349673
p3752
aV4462353682
p3753
aV1470771482
p3754
aV333554316
p3755
aV2207172466
p3756
aV109644216
p3757
aV1264916744
p3758
aV222240054
p3759
aV2682728206
p3760
aV2849702148
p3761
aV2810260335
p3762
aV3007809569
p3763
aV2156367481
p3764
aV2721968416
p3765
aV731465648
p3766
aV410774168
p3767
aV105180687
p3768
aV925089097
p3769
aV2992982729
p3770
aV495748033
p3771
aV2230559222
p3772
aV1001673871
p3773
aV971708142
p3774
aV356404890
p3775
aV64372664
p3776
aV139188966
p3777
aV604576676
p3778
aV2322308742
p3779
aV429795088
p3780
aV2470692079
p3781
aV2634843893
p3782
aV1333711807
p3783
aV3288001617
p3784
aV501225131
p3785
aV4468775656
p3786
aV411702181
p3787
aV1280566146
p3788
aV2486652485
p3789
aV1620754188
p3790
aV419557618
p3791
aV3290073059
p3792
aV2781970583
p3793
aV1489965936
p3794
aV4418821287
p3795
aV2573656466
p3796
aV1132355148
p3797
aV1003645772
p3798
aV79444933
p3799
aV1396824866
p3800
aV419776186
p3801
aV1037529548
p3802
aV46936327
p3803
aV41068452
p3804
aV938688090
p3805
aV300888596
p3806
aV1513950415
p3807
aV637292613
p3808
aV1925718776
p3809
aV821879334
p3810
aV960686203
p3811
aV436857041
p3812
aV3356485570
p3813
aV527277129
p3814
aV584056092
p3815
aV2201369448
p3816
aV733309640
p3817
aV478124356
p3818
aV1043099688
p3819
aV90951923
p3820
aV8672302
p3821
aV405682451
p3822
aV290963421
p3823
aV267174899
p3824
aV79021794
p3825
aV608351043
p3826
aV2616680851
p3827
aV964488151
p3828
aV2197493125
p3829
aV2545761557
p3830
aV486456375
p3831
aV1249982101
p3832
aV876541483
p3833
aV563758424
p3834
aV484208863
p3835
aV1849445707
p3836
aV84130259
p3837
aV2203749108
p3838
aV854372184
p3839
aV3410176738
p3840
aV2501851306
p3841
aV181127011
p3842
aV611621296
p3843
aV1498746487
p3844
aV2398143679
p3845
aV1064357792
p3846
aV398749197
p3847
aV588694308
p3848
aV558486442
p3849
aV2975254905
p3850
aV439131272
p3851
aV258787593
p3852
aV1485497036
p3853
aV2896345199
p3854
aV1707854503
p3855
aV1037588599
p3856
aV532920941
p3857
aV1150651519
p3858
aV391515027
p3859
aV299892016
p3860
aV852687006
p3861
aV133032441
p3862
aV1230871339
p3863
aV2328994740
p3864
aV3025389857
p3865
aV538341709
p3866
aV81837035
p3867
aV2355249940
p3868
aV873079502
p3869
aV3068425203
p3870
aV216374019
p3871
aV1024451294
p3872
aV86209782
p3873
aV2154033305
p3874
aV2172443968
p3875
aV451003130
p3876
aV471141787
p3877
aV1091717713
p3878
aV419037789
p3879
aV2778364615
p3880
aV146213757
p3881
aV512381381
p3882
aV960620516
p3883
aV2990475077
p3884
aV171929021
p3885
aV57060570
p3886
aV82636356
p3887
aV4007950103
p3888
aV1958175968
p3889
aV402557031
p3890
aV1075391245
p3891
aV96340114
p3892
aV207085881
p3893
aV3387844252
p3894
aV1201200074
p3895
aV2236923418
p3896
aV390011318
p3897
aV1244644430
p3898
aV920626381
p3899
aV626443403
p3900
aV2741727190
p3901
aV804961884
p3902
aV361787988
p3903
aV3764059997
p3904
aV504277693
p3905
aV3423827307
p3906
aV273837930
p3907
aV552786185
p3908
aV3326316339
p3909
aV1015989050
p3910
aV208164885
p3911
aV2910674200
p3912
aV586904217
p3913
aV4164602849
p3914
aV25093169
p3915
aV2361814984
p3916
aV391543544
p3917
aV211090942
p3918
aV270022906
p3919
aV720236526
p3920
aV67908379
p3921
aV454903753
p3922
aV68699856
p3923
aV258491297
p3924
aV124286885
p3925
aV615597661
p3926
aV861134490
p3927
aV71224257
p3928
aV1412500075
p3929
aV2813365202
p3930
aV414225050
p3931
aV621761723
p3932
aV1145911274
p3933
aV128226496
p3934
aV1467807296
p3935
aV489490782
p3936
aV1063634156
p3937
aV593742754
p3938
aV2770040464
p3939
aV1044932990
p3940
aV18108933
p3941
aV2647082770
p3942
aV554528990
p3943
aV272462836
p3944
aV717268605
p3945
aV343306779
p3946
aV203977828
p3947
aV1578337921
p3948
aV596663344
p3949
aV14235101
p3950
aV606514542
p3951
aV1040080075
p3952
aV128151527
p3953
aV600150904
p3954
aV2887220891
p3955
aV463841107
p3956
aV199656773
p3957
aV3416068515
p3958
aV485938515
p3959
aV802600538
p3960
aV2970333513
p3961
aV1314735973
p3962
aV2895666573
p3963
aV581285865
p3964
aV2610006061
p3965
aV360748546
p3966
aV617171996
p3967
aV993097518
p3968
aV2832335447
p3969
aV1895164603
p3970
aV138706772
p3971
aV49318571
p3972
aV3319178885
p3973
aV267822453
p3974
aV4472068119
p3975
aV327334660
p3976
aV3546371956
p3977
aV3106135084
p3978
aV2354395787
p3979
aV380194890
p3980
aV896990718
p3981
aV447107439
p3982
aV1652056417
p3983
aV602125481
p3984
aV18760014
p3985
aV189110064
p3986
aV1705500134
p3987
aV384866311
p3988
aV888815552
p3989
aV1447157665
p3990
aV392670758
p3991
aV549451829
p3992
aV1410752528
p3993
aV328022080
p3994
aV2405837416
p3995
aV452829839
p3996
aV268397017
p3997
aV1076505289
p3998
aV787684237
p3999
aV2517218831
p4000
aV927562676
p4001
aV405190466
p4002
aV222769177
p4003
aV454013063
p4004
aV1174943977
p4005
aV537033402
p4006
aV1086946993
p4007
aV2182502256
p4008
aV2930775934
p4009
aV341558515
p4010
aV142268578
p4011
aV319665058
p4012
aV3152996362
p4013
aV408651851
p4014
aV3833975129
p4015
aV1318975646
p4016
aV67552497
p4017
aV1337006293
p4018
aV39043634
p4019
aV1066057848
p4020
aV1971485982
p4021
aV2966187939
p4022
aV3747349043
p4023
aV3740692935
p4024
aV3338378788
p4025
aV466789101
p4026
aV2302978596
p4027
aV102625028
p4028
aV2350203541
p4029
aV558032072
p4030
aV2497259235
p4031
aV94594903
p4032
aV2494263560
p4033
aV714417878
p4034
aV114141144
p4035
aV2293440428
p4036
aV223405753
p4037
aV353678923
p4038
aV593724310
p4039
aV3782813476
p4040
aV1037394888
p4041
aV218931858
p4042
aV1103802308
p4043
aV3028742807
p4044
aV2876784275
p4045
aV2933685736
p4046
aV225534639
p4047
aV784949792
p4048
aV432388000
p4049
aV1067008310
p4050
aV1086481526
p4051
aV159735171
p4052
aV131262995
p4053
aV1107524917
p4054
aV507652780
p4055
aV2273637583
p4056
aV290093767
p4057
aV398293985
p4058
aV618124225
p4059
aV1085901524
p4060
aV1264930363
p4061
aV1538272928
p4062
aV529357339
p4063
aV490478414
p4064
aV1521671185
p4065
aV1015905632
p4066
aV1420443511
p4067
aV55793308
p4068
aV132492502
p4069
aV3699055997
p4070
aV4268512475
p4071
aV3559735215
p4072
aV823003944
p4073
aV957926748
p4074
aV380210729
p4075
aV419743304
p4076
aV299758044
p4077
aV2896131875
p4078
aV2522911828
p4079
aV233527556
p4080
aV416583838
p4081
aV293608717
p4082
aV2524949406
p4083
aV1441302692
p4084
aV18100097
p4085
aV1735792825
p4086
aV402135565
p4087
aV927816210
p4088
aV379084834
p4089
aV2247433494
p4090
aV1472290938
p4091
aV1051173812
p4092
aV2932797062
p4093
aV2969700569
p4094
aV276939593
p4095
aV3297801774
p4096
aV530818643
p4097
aV1553008496
p4098
aV1206243949
p4099
aV418649567
p4100
aV408429600
p4101
aV1537221842
p4102
aV1519323594
p4103
aV1934445032
p4104
aV426187565
p4105
aV1761223712
p4106
aV910790215
p4107
aV1006247030
p4108
aV886502462
p4109
aV192267333
p4110
aV3303875907
p4111
aV944269080
p4112
aV3432995584
p4113
aV791345874
p4114
aV863339647
p4115
aV2846753080
p4116
aV436713932
p4117
aV492880987
p4118
aV13727692
p4119
aV595306303
p4120
aV3172083779
p4121
aV2986211373
p4122
aV1008846302
p4123
aV3296744735
p4124
aV407636372
p4125
aV2348566523
p4126
aV3401227875
p4127
aV2173894016
p4128
aV576472472
p4129
aV533059229
p4130
aV444613355
p4131
aV328473338
p4132
aV981832592
p4133
aV317737372
p4134
aV480588555
p4135
aV99475834
p4136
aV963426306
p4137
aV3137620832
p4138
aV1921331636
p4139
aV3368850503
p4140
aV589253599
p4141
aV11018242
p4142
aV1048408939
p4143
aV32935187
p4144
aV599551998
p4145
aV400262344
p4146
aV1252609351
p4147
aV836271002
p4148
aV583779402
p4149
aV3296210343
p4150
aV416604858
p4151
aV86950612
p4152
aV326183542
p4153
aV1282936026
p4154
aV1937056992
p4155
aV276064646
p4156
aV2526968245
p4157
aV2898392878
p4158
aV267861586
p4159
aV1089513403
p4160
aV1454233897
p4161
aV135439006
p4162
aV532157140
p4163
aV3458047347
p4164
aV556920945
p4165
aV2751256629
p4166
aV4105746975
p4167
aV67746303
p4168
aV476921934
p4169
aV2356251718
p4170
aV455999497
p4171
aV460326075
p4172
aV1499706972
p4173
aV309005868
p4174
aV2906264861
p4175
aV2260290943
p4176
aV825484429
p4177
aV1008326401
p4178
aV1004107182
p4179
aV437619371
p4180
aV3004133483
p4181
aV1956711217
p4182
aV407194493
p4183
aV71604823
p4184
aV2506571955
p4185
aV29244840
p4186
aV1254090175
p4187
aV1534018604
p4188
aV337978353
p4189
aV246840871
p4190
aV2490145710
p4191
aV1516684248
p4192
aV936529081
p4193
aV443832737
p4194
aV1547768323
p4195
aV343253946
p4196
aV438236543
p4197
aV435173619
p4198
aV1026894067
p4199
aV456528210
p4200
aV151993533
p4201
aV834236168
p4202
aV337767301
p4203
aV1566803234
p4204
aV811658653
p4205
aV2209811628
p4206
aV430475387
p4207
aV3199197053
p4208
aV593817814
p4209
aV401703102
p4210
aV520703856
p4211
aV483054946
p4212
aV477811288
p4213
aV449543043
p4214
aV426489444
p4215
aV98137397
p4216
aV466957506
p4217
aV591215948
p4218
aV283416650
p4219
aV595517608
p4220
aV2867707896
p4221
aV2342517254
p4222
aV571133532
p4223
aV495426739
p4224
aV125024546
p4225
aV455526841
p4226
aV987410402
p4227
aV48325738
p4228
aV4141963288
p4229
aV220996437
p4230
aV852301178
p4231
aV1886063070
p4232
aV497255779
p4233
aV3332448431
p4234
aV1011559662
p4235
aV2399334612
p4236
aV2218411411
p4237
aV3657726321
p4238
aV728056298
p4239
aV245960120
p4240
aV534826529
p4241
aV2845737279
p4242
aV24504702
p4243
aV1863493537
p4244
aV2979050746
p4245
aV587460550
p4246
aV2289400058
p4247
aV525863297
p4248
aV433604815
p4249
aV2380592546
p4250
aV478657257
p4251
aV15336354
p4252
aV2828077588
p4253
aV1064261450
p4254
aV2400256825
p4255
aV9808092
p4256
aV1454969664
p4257
aV2256124088
p4258
aV428483408
p4259
aV3300629145
p4260
aV1250267900
p4261
aV389500881
p4262
aV3293736557
p4263
aV93197485
p4264
aV2553289698
p4265
aV225976063
p4266
aV1021541239
p4267
aV710653165
p4268
aV1520681078
p4269
aV1443750158
p4270
aV416325102
p4271
aV3242519025
p4272
aV52011737
p4273
aV278125250
p4274
aV1104800478
p4275
aV4054128130
p4276
aV2318016385
p4277
aV1224996284
p4278
aV2354462598
p4279
aV2348837399
p4280
aV4024648761
p4281
aV3331127301
p4282
aV470354949
p4283
aV43891997
p4284
aV161212876
p4285
aV1247343212
p4286
aV424592559
p4287
aV41611563
p4288
aV2675193370
p4289
aV3024889540
p4290
aV106124791
p4291
aV1743730452
p4292
aV195398823
p4293
aV434467487
p4294
aV980584566
p4295
aV81318149
p4296
aV429743373
p4297
aV917668609
p4298
aV478565327
p4299
aV503338054
p4300
aV2879399363
p4301
aV2389687188
p4302
aV78931294
p4303
aV440339978
p4304
aV2228506255
p4305
aV353575520
p4306
aV19819142
p4307
aV849219014
p4308
aV14732937
p4309
aV887544973
p4310
aV132092980
p4311
aV2588051975
p4312
aV607333435
p4313
aV392668051
p4314
aV139765259
p4315
aV274732036
p4316
aV2873630517
p4317
aV198174972
p4318
aV1088806153
p4319
aV1306369771
p4320
aV2302203556
p4321
aV111539941
p4322
aV90007041
p4323
aV1925048688
p4324
aV45522065
p4325
aV802829264
p4326
aV222574244
p4327
aV135437424
p4328
aV1186093058
p4329
aV1234872032
p4330
aV290585680
p4331
aV3052546040
p4332
aV100878763
p4333
aV929739968
p4334
aV74383792
p4335
aV389713421
p4336
aV3534306737
p4337
aV2224962167
p4338
aV1327701390
p4339
aV2546262781
p4340
aV512966590
p4341
aV358968766
p4342
aV3298746532
p4343
aV9568772
p4344
aV1431920300
p4345
aV426064773
p4346
aV556650372
p4347
aV158725081
p4348
aV704494340
p4349
aV1019916936
p4350
aV275793321
p4351
aV418164976
p4352
aV2689440504
p4353
aV29021794
p4354
aV17573255
p4355
aV47875351
p4356
aV445567589
p4357
aV49954018
p4358
aV244654932
p4359
aV458708195
p4360
aV396756630
p4361
aV70304400
p4362
aV2196971488
p4363
aV452115578
p4364
aV22129679
p4365
aV519600606
p4366
aV388946039
p4367
aV1187276833
p4368
aV2391481671
p4369
aV495277374
p4370
aV1070874246
p4371
aV3365536059
p4372
aV2779052114
p4373
aV1947015416
p4374
aV2920016242
p4375
aV573829094
p4376
aV1519280473
p4377
aV2359406918
p4378
aV1901402736
p4379
aV136815135
p4380
aV2169771406
p4381
aV1065081188
p4382
aV129223592
p4383
aV532222780
p4384
aV881766932
p4385
aV95670185
p4386
aV214435443
p4387
aV381925358
p4388
aV158044431
p4389
aV1034446975
p4390
aV422015695
p4391
aV476882865
p4392
aV247505099
p4393
aV2921948057
p4394
aV2151386969
p4395
aV1492135807
p4396
aV607124359
p4397
aV437573164
p4398
aV1707145292
p4399
aV278743750
p4400
aV77723585
p4401
aV4017606185
p4402
aV513253779
p4403
aV57291452
p4404
aV952286635
p4405
aV479458968
p4406
aV1623140270
p4407
aV1693239398
p4408
aV469267629
p4409
aV51522357
p4410
aV2598519708
p4411
aV1630204784
p4412
aV1039384628
p4413
aV836880307
p4414
aV714508457
p4415
aV847200666
p4416
aV3318947976
p4417
aV2432948813
p4418
aV80392616
p4419
aV528480384
p4420
aV513827163
p4421
aV411011613
p4422
aV268211237
p4423
aV1370176568
p4424
aV2888891609
p4425
aV2960394040
p4426
aV481409710
p4427
aV2407992892
p4428
aV949794397
p4429
aV3220659027
p4430
aV1216167666
p4431
aV474636826
p4432
aV2970015723
p4433
aV1551130236
p4434
aV636079591
p4435
aV497220677
p4436
aV1244162966
p4437
aV2263672865
p4438
aV3395014151
p4439
aV2821178500
p4440
aV219359407
p4441
aV2549528592
p4442
aV142731535
p4443
aV593752362
p4444
aV252037669
p4445
aV284405358
p4446
aV4255982193
p4447
aV411047834
p4448
aV198999487
p4449
aV421085821
p4450
aV377514799
p4451
aV197389394
p4452
aV2285300214
p4453
aV1637673823
p4454
aV3293785419
p4455
aV2263824353
p4456
aV403430248
p4457
aV132810751
p4458
aV1880410159
p4459
aV224363995
p4460
aV1424957299
p4461
aV420648457
p4462
aV3384532967
p4463
aV22005584
p4464
aV3380511171
p4465
aV4430250461
p4466
aV1118909672
p4467
aV173494713
p4468
aV532467731
p4469
aV539174332
p4470
aV483434707
p4471
aV575687795
p4472
aV3506859329
p4473
aV3200053252
p4474
aV431051576
p4475
aV2656316737
p4476
aV1171615016
p4477
aV1370214476
p4478
aV4144260257
p4479
aV950862948
p4480
aV244087105
p4481
aV626402118
p4482
aV3000918764
p4483
aV140867097
p4484
aV449717780
p4485
aV443193400
p4486
aV2437846648
p4487
aV1722085688
p4488
aV335267459
p4489
aV2198114532
p4490
aV418639778
p4491
aV1543301426
p4492
aV196758012
p4493
aV2850317135
p4494
aV1367945690
p4495
aV430111472
p4496
aV1041797395
p4497
aV54616689
p4498
aV2270632844
p4499
aV1262138317
p4500
aV1268953866
p4501
aV861942588
p4502
aV242264038
p4503
aV471204239
p4504
aV310328874
p4505
aV3825308554
p4506
aV118638286
p4507
aV16502941
p4508
aV91442102
p4509
aV1015187821
p4510
aV547979978
p4511
aV207211184
p4512
aV783223122
p4513
aV432639718
p4514
aV3843282933
p4515
aV452909538
p4516
aV1131151171
p4517
aV636831721
p4518
aV375199294
p4519
aV168273926
p4520
aV2922224044
p4521
aV143393223
p4522
aV1925900617
p4523
aV1456364640
p4524
aV2194701022
p4525
aV462298361
p4526
aV771779280
p4527
aV2410911599
p4528
aV3085902740
p4529
aV424997954
p4530
aV109097969
p4531
aV66187123
p4532
aV63431013
p4533
aV1475843114
p4534
aV905860236
p4535
aV714081957
p4536
aV128920173
p4537
aV429327262
p4538
aV563558852
p4539
aV1534486934
p4540
aV3304909880
p4541
aV3791287633
p4542
aV50346361
p4543
aV1469982290
p4544
aV410237431
p4545
aV4110262577
p4546
aV470922121
p4547
aV2315532764
p4548
aV1849153957
p4549
aV368538491
p4550
aV554993833
p4551
aV2735633974
p4552
aV239736419
p4553
aV414311459
p4554
aV421146026
p4555
aV2164608279
p4556
aV533885060
p4557
aV2148839571
p4558
aV51372388
p4559
aV363175283
p4560
aV403681365
p4561
aV4076765242
p4562
aV2354176852
p4563
aV24195377
p4564
aV4396672822
p4565
aV328946204
p4566
aV3341740457
p4567
aV2445362927
p4568
aV426716463
p4569
aV47398478
p4570
aV1644883268
p4571
aV546377024
p4572
aV460374247
p4573
aV632180262
p4574
aV284683090
p4575
aV403684823
p4576
aV170739225
p4577
aV611084963
p4578
aV3906173233
p4579
aV2617194256
p4580
aV2885125256
p4581
aV2592758547
p4582
aV4308746069
p4583
aV421319874
p4584
aV2749922652
p4585
aV1370541158
p4586
aV153444044
p4587
aV2537836649
p4588
aV1882975495
p4589
aV489760837
p4590
aV85610558
p4591
aV370730465
p4592
aV2250752450
p4593
aV2846735915
p4594
aV192948690
p4595
aV516743136
p4596
aV2629123617
p4597
aV4065144441
p4598
aV1596006396
p4599
aV291157825
p4600
aV570043126
p4601
aV4365416835
p4602
aV865151485
p4603
aV2852162818
p4604
aV930579210
p4605
aV210981281
p4606
aV3547656383
p4607
aV515698229
p4608
aV2470729364
p4609
aV248176574
p4610
aV1538025666
p4611
aV3435833577
p4612
aV1050116880
p4613
aV951848540
p4614
aV90832118
p4615
aV174643719
p4616
aV989340356
p4617
aV4193220022
p4618
aV328908801
p4619
aV1082360172
p4620
aV2348246965
p4621
aV325739333
p4622
aV223978952
p4623
aV1316630180
p4624
aV562768029
p4625
aV2850037264
p4626
aV2172447895
p4627
aV631446389
p4628
aV1258062649
p4629
aV570144271
p4630
aV1126328364
p4631
aV437533038
p4632
aV2327955038
p4633
aV475982737
p4634
aV1142172680
p4635
aV265385204
p4636
aV1567710026
p4637
aV61321965
p4638
aV218073110
p4639
aV3385105642
p4640
aV3030465038
p4641
aV1371696817
p4642
aV305481008
p4643
aV3425973148
p4644
aV214967057
p4645
aV1069206085
p4646
aV2349873744
p4647
aV2231349469
p4648
aV68619763
p4649
aV2172743300
p4650
aV548616993
p4651
aV91070068
p4652
aV402615571
p4653
aV168659376
p4654
aV69532732
p4655
aV3104379609
p4656
aV129858180
p4657
aV374314630
p4658
aV2885405805
p4659
aV2459906261
p4660
aV94369309
p4661
aV3221078289
p4662
aV425803153
p4663
aV3432049822
p4664
aV265186391
p4665
aV1849298862
p4666
aV83091979
p4667
aV215351732
p4668
aV995271438
p4669
aV471859605
p4670
aV408437002
p4671
aV2167432183
p4672
aV542548905
p4673
aV1211068321
p4674
aV448335186
p4675
aV303953424
p4676
aV4258006233
p4677
aV340847319
p4678
aV573872757
p4679
aV228089084
p4680
aV297275053
p4681
aV2486590532
p4682
aV10280002
p4683
aV3228961984
p4684
aV892666663
p4685
aV254998344
p4686
aV2543774477
p4687
aV15570883
p4688
aV235628934
p4689
aV2341949947
p4690
aV1006160659
p4691
aV467296064
p4692
aV219995423
p4693
aV429399171
p4694
aV96622392
p4695
aV309750549
p4696
aV2751862871
p4697
aV1930118646
p4698
aV3164117122
p4699
aV2517301839
p4700
aV223655842
p4701
aV4033250541
p4702
aV1663521566
p4703
aV360386729
p4704
aV2391603191
p4705
aV460049464
p4706
aV3890130982
p4707
aV1360232480
p4708
aV2884126876
p4709
aV426169679
p4710
aV119572257
p4711
aV3130764413
p4712
aV1923062455
p4713
aV392815908
p4714
aV2343694818
p4715
aV196560266
p4716
aV155892437
p4717
aV2306160724
p4718
aV962800453
p4719
aV2999932538
p4720
aV989645683
p4721
aV562019579
p4722
aV2382081974
p4723
aV1434038420
p4724
aV1328476232
p4725
aV400902983
p4726
aV1339847899
p4727
aV4213261001
p4728
aV4019652328
p4729
aV242399306
p4730
aV99437169
p4731
aV2988522056
p4732
aV488059670
p4733
aV2675402884
p4734
aV2194877690
p4735
aV31389755
p4736
aV2768212373
p4737
aV123920914
p4738
aV2883830458
p4739
aV2967451289
p4740
aV2281936099
p4741
aV296226891
p4742
aV1219909531
p4743
aV481457729
p4744
aV232559332
p4745
aV111967979
p4746
aV716740338
p4747
aV325216983
p4748
aV2954466255
p4749
aV165349833
p4750
aV405792460
p4751
aV29236612
p4752
aV280738990
p4753
aV1039567567
p4754
aV448981774
p4755
aV724011008
p4756
aV114765956
p4757
aV708754158
p4758
aV1351561135
p4759
aV427484456
p4760
aV2338400551
p4761
aV1065109687
p4762
aV1065659874
p4763
aV2582829423
p4764
aV437290507
p4765
aV1930220948
p4766
aV221459764
p4767
aV2444425252
p4768
aV379338387
p4769
aV145976178
p4770
aV426152264
p4771
aV440691898
p4772
aV587639074
p4773
aV472771528
p4774
aV2179948113
p4775
aV955125438
p4776
aV321463844
p4777
aV2626237523
p4778
aV2877822448
p4779
aV102381903
p4780
aV267717413
p4781
aV2628243615
p4782
aV376332640
p4783
aV436017494
p4784
aV49656085
p4785
aV2342104352
p4786
aV408334473
p4787
aV379645871
p4788
aV1911991346
p4789
aV1871148109
p4790
aV1000272128
p4791
aV264941030
p4792
aV1374582042
p4793
aV3152228475
p4794
aV1638143131
p4795
aV291713477
p4796
aV1090076990
p4797
aV490446359
p4798
aV2901882595
p4799
aV2782707164
p4800
aV2398209542
p4801
aV1897495668
p4802
aV2506777795
p4803
aV283114101
p4804
aV241051953
p4805
aV418690479
p4806
aV829790846
p4807
aV893519352
p4808
aV22604733
p4809
aV116871279
p4810
aV435737042
p4811
aV1346721164
p4812
aV461106046
p4813
aV337623142
p4814
aV2754433723
p4815
aV335575872
p4816
aV470569358
p4817
aV1292285090
p4818
aV2933100036
p4819
aV3392159079
p4820
aV1924748329
p4821
aV412250316
p4822
aV540164646
p4823
aV1017323329
p4824
aV298123237
p4825
aV497249239
p4826
aV2809762856
p4827
aV453379084
p4828
aV822200874
p4829
aV442218921
p4830
aV1610689010
p4831
aV3040859566
p4832
aV507426355
p4833
aV497232176
p4834
aV593623163
p4835
aV14573456
p4836
aV1440962359
p4837
aV551803028
p4838
aV635490690
p4839
aV430033435
p4840
aV449850313
p4841
aV1858530686
p4842
aV3153491272
p4843
aV1036719990
p4844
aV317685710
p4845
aV977802012
p4846
aV2734420731
p4847
aV2467620954
p4848
aV118183154
p4849
aV2380821996
p4850
aV2521545964
p4851
aV581094257
p4852
aV947689230
p4853
aV432434135
p4854
aV148518619
p4855
aV1555257990
p4856
aV615799036
p4857
aV326674366
p4858
aV2867906470
p4859
aV387500342
p4860
aV422103470
p4861
aV22521283
p4862
aV925681405
p4863
aV3019537145
p4864
aV769739538
p4865
aV425069433
p4866
aV550517211
p4867
aV3078402187
p4868
aV2883671135
p4869
aV545383941
p4870
aV1235964434
p4871
aV15098203
p4872
aV1572483594
p4873
aV3226276925
p4874
aV426045784
p4875
aV3039222688
p4876
aV2329940551
p4877
aV1676549120
p4878
aV109394479
p4879
aV564613025
p4880
aV544319967
p4881
aV45117064
p4882
aV447005422
p4883
aV249162312
p4884
aV1095371970
p4885
aV908126539
p4886
aV3290982938
p4887
aV1333369999
p4888
aV1622365038
p4889
aV3204822413
p4890
aV45890303
p4891
aV1456739846
p4892
aV18900383
p4893
aV1264774998
p4894
aV482228231
p4895
aV67313839
p4896
aV2244460336
p4897
aV396691435
p4898
aV331560317
p4899
aV2163139580
p4900
aV209023885
p4901
aV2238971784
p4902
aV452336299
p4903
aV1045531866
p4904
aV3323600590
p4905
aV3044633314
p4906
aV420236092
p4907
aV4122158176
p4908
aV402974384
p4909
aV416165363
p4910
aV755821556
p4911
aV3207531593
p4912
aV93691257
p4913
aV955313736
p4914
aV2154746892
p4915
aV1229121186
p4916
aV1167316106
p4917
aV456839086
p4918
aV1540545835
p4919
aV317094028
p4920
aV257863799
p4921
aV2895077031
p4922
aV263588745
p4923
aV2320187182
p4924
aV1401968592
p4925
aV18577800
p4926
aV165489209
p4927
aV114846706
p4928
aV442756453
p4929
aV475234937
p4930
aV1397108892
p4931
aV2548434750
p4932
aV420567185
p4933
aV557057167
p4934
aV346644651
p4935
aV98480396
p4936
aV567688029
p4937
aV38846888
p4938
aV24386364
p4939
aV238356672
p4940
aV2509301951
p4941
aV3774900569
p4942
aV609404111
p4943
aV265587383
p4944
aV1260171894
p4945
aV19488600
p4946
aV515909793
p4947
aV442623333
p4948
aV379615804
p4949
aV286736622
p4950
aV396855139
p4951
aV1698474908
p4952
aV239450599
p4953
aV1338620790
p4954
aV191488665
p4955
aV2677126847
p4956
aV70355730
p4957
aV3306827115
p4958
aV2226989317
p4959
aV1334038333
p4960
aV414184489
p4961
aV2468306143
p4962
aV610246193
p4963
aV1037003822
p4964
aV459635301
p4965
aV1331128747
p4966
aV2508295280
p4967
aV790179331
p4968
aV486617604
p4969
aV2729847393
p4970
aV213918312
p4971
aV559551312
p4972
aV50361109
p4973
aV858281942
p4974
aV3097809495
p4975
aV2403377428
p4976
aV1313529667
p4977
aV620291783
p4978
aV22752409
p4979
aV272945830
p4980
aV590188450
p4981
aV100590008
p4982
aV133790890
p4983
aV301985375
p4984
aV1246197373
p4985
aV123687524
p4986
aV449290678
p4987
aV1317181914
p4988
aV1326981517
p4989
aV603038675
p4990
aV931728187
p4991
aV2400326462
p4992
aV1675339604
p4993
aV472905491
p4994
aV2321208666
p4995
aV20128307
p4996
aV121598739
p4997
aV474239930
p4998
aV491406971
p4999
aV1116671611
p5000
aV158418359
p5001
aV4041084706
p5002
aV1562752760
p5003
aV1464788840
p5004
aV702750694
p5005
aV1318831304
p5006
aV1310209976
p5007
aV471022266
p5008
aV2479999514
p5009
aV1717274785
p5010
aV1106237790
p5011
aV499128183
p5012
aV105242953
p5013
aV3047476887
p5014
aV377374276
p5015
aV514121765
p5016
aV3295563335
p5017
aV3069843927
p5018
aV849149754
p5019
aV1045413120
p5020
aV489540781
p5021
aV599247299
p5022
aV43854787
p5023
aV3674454376
p5024
aV1387662265
p5025
aV3172154206
p5026
aV973647258
p5027
aV1335905778
p5028
aV105616077
p5029
aV2850135335
p5030
aV17211295
p5031
aV1926516720
p5032
aV3426009928
p5033
aV507639440
p5034
aV15387167
p5035
aV2989253800
p5036
aV1548731238
p5037
aV220730887
p5038
aV1079126036
p5039
aV2537853697
p5040
aV4419320973
p5041
aV1407226496
p5042
aV1367962406
p5043
aV4097637904
p5044
aV1473186668
p5045
aV1385157470
p5046
aV3657040534
p5047
aV173239993
p5048
aV62984417
p5049
aV2464828514
p5050
aV1412754547
p5051
aV1030996831
p5052
aV1198293565
p5053
aV1926324451
p5054
aV450517687
p5055
aV236794333
p5056
aV2811414913
p5057
aV495359169
p5058
aV132164537
p5059
aV2340110677
p5060
aV2309104363
p5061
aV3754004716
p5062
aV462938464
p5063
aV413786539
p5064
aV3699668423
p5065
aV418653898
p5066
aV719826149
p5067
aV541171533
p5068
aV1142540912
p5069
aV284220925
p5070
aV2164271857
p5071
aV76087269
p5072
aV395216654
p5073
aV436021367
p5074
aV170845973
p5075
aV378108580
p5076
aV3198028097
p5077
aV263763897
p5078
aV1558415174
p5079
aV464623870
p5080
aV3862144277
p5081
aV2280648054
p5082
aV463147024
p5083
aV445424014
p5084
aV547690180
p5085
aV404867648
p5086
aV477087498
p5087
aV53070282
p5088
aV2608834732
p5089
aV4177945095
p5090
aV507746291
p5091
aV467307839
p5092
aV471888854
p5093
aV2676277944
p5094
aV1413220182
p5095
aV1125816168
p5096
aV2479620311
p5097
aV121036455
p5098
aV2351898350
p5099
aV2967971350
p5100
aV1049141732
p5101
aV888619242
p5102
aV354798444
p5103
aV501137418
p5104
aV579049498
p5105
aV1148946079
p5106
aV3527260401
p5107
aV3243394143
p5108
aV3033262155
p5109
aV985232360
p5110
aV3314379070
p5111
aV726754674
p5112
aV1606732351
p5113
aV2464335277
p5114
aV3432900449
p5115
aV2228125304
p5116
aV1062583370
p5117
aV469551947
p5118
aV476106364
p5119
aV875275974
p5120
aV1593610880
p5121
aV43503218
p5122
aV75089418
p5123
aV514104395
p5124
aV34187758
p5125
aV387198659
p5126
aV954518996
p5127
aV442021358
p5128
aV2519252925
p5129
aV3421640121
p5130
aV736745744
p5131
aV3446680167
p5132
aV2206083227
p5133
aV3305490857
p5134
aV1283876635
p5135
aV506387757
p5136
aV625000187
p5137
aV461876281
p5138
aV2283043525
p5139
aV3089985796
p5140
aV459177335
p5141
aV23964928
p5142
aV46583874
p5143
aV279006226
p5144
aV96140734
p5145
aV138755995
p5146
aV487914598
p5147
aV430330483
p5148
aV418028983
p5149
aV585988043
p5150
aV602574015
p5151
aV430193635
p5152
aV269031207
p5153
aV2721584009
p5154
aV29971227
p5155
aV2366872745
p5156
aV469496232
p5157
aV465850747
p5158
aV2320796245
p5159
aV184389349
p5160
aV3389194037
p5161
aV1083273792
p5162
aV469406174
p5163
aV3021384838
p5164
aV3001714919
p5165
aV57259020
p5166
aV18188941
p5167
aV3421739637
p5168
aV2406795462
p5169
aV77437422
p5170
aV773074386
p5171
aV495435252
p5172
aV2351775654
p5173
aV255666406
p5174
aV392987772
p5175
aV77592173
p5176
aV319578825
p5177
aV1205514547
p5178
aV98679589
p5179
aV2396676379
p5180
aV508580854
p5181
aV3295398963
p5182
aV1185441985
p5183
aV361375278
p5184
aV16213811
p5185
aV416018070
p5186
aV4098830355
p5187
aV1205715230
p5188
aV1198120951
p5189
aV219406236
p5190
aV540979390
p5191
aV469210827
p5192
aV292305792
p5193
aV2806979686
p5194
aV2402416301
p5195
aV418153325
p5196
aV2198111423
p5197
aV2746586057
p5198
aV934197043
p5199
aV523298499
p5200
aV342565844
p5201
aV187500615
p5202
aV4154941402
p5203
aV602069331
p5204
aV1063011624
p5205
aV147543162
p5206
aV469366673
p5207
aV3995124705
p5208
aV133899639
p5209
aV3729804915
p5210
aV1634763686
p5211
aV461088423
p5212
aV404127899
p5213
aV420351046
p5214
aV53154047
p5215
aV2909381398
p5216
aV395218906
p5217
aV183283202
p5218
aV5893702
p5219
a.